 HackBaseMini

 Timestamp is 55ed6773 (Mon Sep  7 13:31:15 2015)

 Preferred load address is 10000000

 Start         Length     Name                   Class
 0001:00000000 00000ec6H .text                   CODE
 0001:00000ed0 00000290H .text$di                CODE
 0001:00001160 0002e715H .text$mn                CODE
 0001:0002f880 000003e0H .text$x                 CODE
 0001:0002fc60 000002b2H .text$yd                CODE
 0002:00000000 0000017cH .idata$5                DATA
 0002:0000017c 00000004H .00cfg                  DATA
 0002:00000180 00000004H .CRT$XCA                DATA
 0002:00000184 0000000cH .CRT$XCC                DATA
 0002:00000190 00000008H .CRT$XCL                DATA
 0002:00000198 0000002cH .CRT$XCU                DATA
 0002:000001c4 00000004H .CRT$XCZ                DATA
 0002:000001c8 00000004H .CRT$XIA                DATA
 0002:000001cc 00000018H .CRT$XIC                DATA
 0002:000001e4 00000004H .CRT$XIZ                DATA
 0002:000001e8 00000004H .CRT$XLA                DATA
 0002:000001ec 00000004H .CRT$XLZ                DATA
 0002:000001f0 00000004H .CRT$XPA                DATA
 0002:000001f4 00000008H .CRT$XPX                DATA
 0002:000001fc 00000004H .CRT$XPXA               DATA
 0002:00000200 00000004H .CRT$XPZ                DATA
 0002:00000204 00000004H .CRT$XTA                DATA
 0002:00000208 00000004H .CRT$XTZ                DATA
 0002:0000020c 00000000H .gfids$x                DATA
 0002:00000210 0000afb4H .rdata                  DATA
 0002:0000b1c4 00000018H .rdata$T                DATA
 0002:0000b1dc 0000098cH .rdata$r                DATA
 0002:0000bb68 00000010H .rdata$zETW0            DATA
 0002:0000bb78 00000077H .rdata$zETW1            DATA
 0002:0000bbef 0000002cH .rdata$zETW2            DATA
 0002:0000bc1b 00000001H .rdata$zETW9            DATA
 0002:0000bc1c 0000039cH .rdata$zzzdbg           DATA
 0002:0000bfb8 00000004H .rtc$IAA                DATA
 0002:0000bfbc 00000004H .rtc$IZZ                DATA
 0002:0000bfc0 00000004H .rtc$TAA                DATA
 0002:0000bfc4 00000004H .rtc$TZZ                DATA
 0002:0000bfc8 00000e4cH .xdata$x                DATA
 0002:0000ce20 0000004fH .edata                  DATA
 0002:0000ce70 00000050H .idata$2                DATA
 0002:0000cec0 00000014H .idata$3                DATA
 0002:0000ced4 0000017cH .idata$4                DATA
 0002:0000d050 000006c6H .idata$6                DATA
 0003:00000000 00000c10H .data                   DATA
 0003:00000c10 00000483H .data$r                 DATA
 0003:00001098 0000b7f0H .bss                    DATA
 0004:00000000 00000001H .tls                    DATA
 0004:00000004 00000004H .tls$                   DATA
 0004:00000008 00000001H .tls$ZZZ                DATA

  Address         Publics by Value              Rva+Base       Lib:Object

 0000:00000000       ___guard_fids_count        00000000     <absolute>
 0000:00000000       __except_list              00000000     <absolute>
 0000:00000000       ___guard_fids_table        00000000     <absolute>
 0000:00000000       ___safe_se_handler_table   00000000     <absolute>
 0000:00000000       ___safe_se_handler_count   00000000     <absolute>
 0000:0000002c       __tls_array                0000002c     <absolute>
 0000:00000100       ___guard_flags             00000100     <absolute>
 0000:00000000       ___ImageBase               10000000     <linker-defined>
 0001:00000000       ??0CDetourEnableWriteOnCodePage@@QAE@PAEJ@Z 10001000 f i detours:detours.obj
 0001:00000080       ??1CDetourEnableWriteOnCodePage@@QAE@XZ 10001080 f i detours:detours.obj
 0001:000000f0       _DetourFunction@8          100010f0 f   detours:detours.obj
 0001:000003e0       ?SetPermission@CDetourEnableWriteOnCodePage@@QAEHK@Z 100013e0 f i detours:detours.obj
 0001:00000420       ?IsValid@CDetourEnableWriteOnCodePage@@QAEHXZ 10001420 f i detours:detours.obj
 0001:000004c0       ?DetourGenJmp@@YAPAEPAE00@Z 100014c0 f i detours:detours.obj
 0001:00000500       ?DetourGenBreak@@YAPAEPAE@Z 10001500 f i detours:detours.obj
 0001:00000520       _DetourGetFinalCode@8      10001520 f   detours:detours.obj
 0001:00000590       _DetourCopyInstruction@12  10001590 f   detours:disasm.obj
 0001:000005c0       ??0CDetourDis@@QAE@PAPAEPAJ@Z 100015c0 f   detours:disasm.obj
 0001:00000640       ?Set16BitOperand@CDetourDis@@IAEXXZ 10001640 f   detours:disasm.obj
 0001:00000660       ?Set32BitOperand@CDetourDis@@IAEXXZ 10001660 f   detours:disasm.obj
 0001:00000680       ?Set16BitAddress@CDetourDis@@IAEXXZ 10001680 f   detours:disasm.obj
 0001:000006a0       ?Set32BitAddress@CDetourDis@@IAEXXZ 100016a0 f   detours:disasm.obj
 0001:000006c0       ?CopyInstruction@CDetourDis@@QAEPAEPAE0@Z 100016c0 f   detours:disasm.obj
 0001:00000720       ?CopyBytes@CDetourDis@@IAEPAEPBUCOPYENTRY@1@PAE1@Z 10001720 f   detours:disasm.obj
 0001:00000900       ?CopyBytesPrefix@CDetourDis@@IAEPAEPBUCOPYENTRY@1@PAE1@Z 10001900 f   detours:disasm.obj
 0001:00000950       ?AdjustTarget@CDetourDis@@IAEPAEPAE0JJ@Z 10001950 f   detours:disasm.obj
 0001:00000a30       ?Invalid@CDetourDis@@IAEPAEPBUCOPYENTRY@1@PAE1@Z 10001a30 f   detours:disasm.obj
 0001:00000a50       ?Copy0F@CDetourDis@@IAEPAEPBUCOPYENTRY@1@PAE1@Z 10001a50 f   detours:disasm.obj
 0001:00000aa0       ?Copy66@CDetourDis@@IAEPAEPBUCOPYENTRY@1@PAE1@Z 10001aa0 f   detours:disasm.obj
 0001:00000ad0       ?Copy67@CDetourDis@@IAEPAEPBUCOPYENTRY@1@PAE1@Z 10001ad0 f   detours:disasm.obj
 0001:00000b00       ?CopyF6@CDetourDis@@IAEPAEPBUCOPYENTRY@1@PAE1@Z 10001b00 f   detours:disasm.obj
 0001:00000b60       ?CopyF7@CDetourDis@@IAEPAEPBUCOPYENTRY@1@PAE1@Z 10001b60 f   detours:disasm.obj
 0001:00000bc0       ?CopyFF@CDetourDis@@IAEPAEPBUCOPYENTRY@1@PAE1@Z 10001bc0 f   detours:disasm.obj
 0001:00000c67       ?TraceLoggingRegister@__vcrt_trace_logging_provider@@YAJPBU_TlgProvider_t@1@PBU_GUID@@P6GX1KE_K2PAU_EVENT_FILTER_DESCRIPTOR@@PAX@Z4@Z 10001c67 f i libvcruntime:telemetry.obj
 0001:00000cc4       ?TraceLoggingSetInformation@__vcrt_trace_logging_provider@@YAJPBU_TlgProvider_t@1@W4_EVENT_INFO_CLASS@@PAXK@Z 10001cc4 f i libvcruntime:telemetry.obj
 0001:00000cef       ?TraceLoggingUnregister@__vcrt_trace_logging_provider@@YAXPBU_TlgProvider_t@1@@Z 10001cef f i libvcruntime:telemetry.obj
 0001:00000d0e       ?_TlgCreateSz@__vcrt_trace_logging_provider@@YAXPAU_EVENT_DATA_DESCRIPTOR@@PBD@Z 10001d0e f i libvcruntime:telemetry.obj
 0001:00000d46       ?_TlgCreateWsz@__vcrt_trace_logging_provider@@YAXPAU_EVENT_DATA_DESCRIPTOR@@PB_W@Z 10001d46 f i libvcruntime:telemetry.obj
 0001:00000d8a       ?_TlgEnableCallback@__vcrt_trace_logging_provider@@YGXPBU_GUID@@KE_K1PAU_EVENT_FILTER_DESCRIPTOR@@PAX@Z 10001d8a f i libvcruntime:telemetry.obj
 0001:00000e02       ?_TlgKeywordOn@__vcrt_trace_logging_provider@@YAEPBU_TlgProvider_t@1@_K@Z 10001e02 f i libvcruntime:telemetry.obj
 0001:00000e3e       ?_TlgWrite@__vcrt_trace_logging_provider@@YAJPBU_TlgProvider_t@1@PBXPBU_GUID@@2IPAU_EVENT_DATA_DESCRIPTOR@@@Z 10001e3e f i libvcruntime:telemetry.obj
 0001:00001160       ___local_stdio_printf_options 10002160 f i cFont.obj
 0001:00001170       __vsnprintf_l              10002170 f i cFont.obj
 0001:000011b0       ??0exception@std@@QAE@QBD@Z 100021b0 f i Client.obj
 0001:000011f0       ??0exception@std@@QAE@ABV01@@Z 100021f0 f i Client.obj
 0001:00001220       ?what@exception@std@@UBEPBDXZ 10002220 f i Client.obj
 0001:00001230       ??_Ebad_cast@std@@UAEPAXI@Z 10002230 f i * CIL library *:* CIL module *
 0001:00001230       ??_Gruntime_error@std@@UAEPAXI@Z 10002230 f i Client.obj
 0001:00001230       ??_Eruntime_error@std@@UAEPAXI@Z 10002230 f i * CIL library *:* CIL module *
 0001:00001230       ??_Eexception@std@@UAEPAXI@Z 10002230 f i * CIL library *:* CIL module *
 0001:00001230       ??_Gbad_cast@std@@UAEPAXI@Z 10002230 f i Client.obj
 0001:00001230       ??_Gexception@std@@UAEPAXI@Z 10002230 f i Client.obj
 0001:00001260       _sprintf                   10002260 f i Client.obj
 0001:00001280       ?compare@?$char_traits@D@std@@SAHPBD0I@Z 10002280 f i Client.obj
 0001:000012f0       ??1bad_array_new_length@std@@UAE@XZ 100022f0 f i LIBCMT:throw_bad_alloc.obj
 0001:000012f0       ??1length_error@std@@UAE@XZ 100022f0 f i libcpmt:xthrow.obj
 0001:000012f0       ??1bad_exception@std@@UAE@XZ 100022f0 f i libvcruntime:frame.obj
 0001:000012f0       ??1bad_cast@std@@UAE@XZ    100022f0 f i Client.obj
 0001:000012f0       ??1runtime_error@std@@UAE@XZ 100022f0 f i Client.obj
 0001:000012f0       ??1failure@ios_base@std@@UAE@XZ 100022f0 f i Client.obj
 0001:000012f0       ??1bad_alloc@std@@UAE@XZ   100022f0 f i LIBCMT:throw_bad_alloc.obj
 0001:000012f0       ??1out_of_range@std@@UAE@XZ 100022f0 f i libcpmt:xthrow.obj
 0001:00001310       ??0_Locinfo@std@@QAE@PBD@Z 10002310 f i Client.obj
 0001:000013e0       ??1_Locinfo@std@@QAE@XZ    100023e0 f i Client.obj
 0001:000014b0       ??0runtime_error@std@@QAE@ABV01@@Z 100024b0 f i Client.obj
 0001:000014f0       ??_E_Facet_base@std@@UAEPAXI@Z 100024f0 f i * CIL library *:* CIL module *
 0001:000014f0       ??_G_Facet_base@std@@UAEPAXI@Z 100024f0 f i Client.obj
 0001:00001520       ?_Incref@facet@locale@std@@UAEXXZ 10002520 f i Client.obj
 0001:00001530       ?_Decref@facet@locale@std@@UAEPAV_Facet_base@3@XZ 10002530 f i Client.obj
 0001:00001550       ??1locale@std@@QAE@XZ      10002550 f i Client.obj
 0001:00001590       ?_Getcat@?$ctype@D@std@@SAIPAPBVfacet@locale@2@PBV42@@Z 10002590 f i Client.obj
 0001:00001650       ?do_tolower@?$ctype@D@std@@MBEDD@Z 10002650 f i Client.obj
 0001:00001670       ?do_tolower@?$ctype@D@std@@MBEPBDPADPBD@Z 10002670 f i Client.obj
 0001:000016c0       ?do_toupper@?$ctype@D@std@@MBEDD@Z 100026c0 f i Client.obj
 0001:000016e0       ?do_toupper@?$ctype@D@std@@MBEPBDPADPBD@Z 100026e0 f i Client.obj
 0001:00001730       ?do_widen@?$ctype@D@std@@MBEDD@Z 10002730 f i Client.obj
 0001:00001740       ?do_widen@?$ctype@D@std@@MBEPBDPBD0PAD@Z 10002740 f i Client.obj
 0001:00001760       ?do_narrow@?$ctype@D@std@@MBEDDD@Z 10002760 f i Client.obj
 0001:00001770       ?do_narrow@?$ctype@D@std@@MBEPBDPBD0DPAD@Z 10002770 f i Client.obj
 0001:00001790       ??_E?$ctype@D@std@@MAEPAXI@Z 10002790 f i * CIL library *:* CIL module *
 0001:00001790       ??_G?$ctype@D@std@@MAEPAXI@Z 10002790 f i Client.obj
 0001:000017f0       ??_G_Iostream_error_category@std@@UAEPAXI@Z 100027f0 f i Client.obj
 0001:000017f0       ??_Eerror_category@std@@UAEPAXI@Z 100027f0 f i * CIL library *:* CIL module *
 0001:000017f0       ??_Gerror_category@std@@UAEPAXI@Z 100027f0 f i Client.obj
 0001:000017f0       ??_E_Iostream_error_category@std@@UAEPAXI@Z 100027f0 f i * CIL library *:* CIL module *
 0001:00001820       ?message@error_code@std@@QBE?AV?$basic_string@DU?$char_traits@D@std@@V?$allocator@D@2@@2@XZ 10002820 f i Client.obj
 0001:00001850       ?default_error_condition@error_category@std@@UBE?AVerror_condition@2@H@Z 10002850 f i Client.obj
 0001:00001870       ?equivalent@error_category@std@@UBE_NHABVerror_condition@2@@Z 10002870 f i Client.obj
 0001:000018b0       ?equivalent@error_category@std@@UBE_NABVerror_code@2@H@Z 100028b0 f i Client.obj
 0001:000018e0       ?_Makestr@_System_error@std@@CA?AV?$basic_string@DU?$char_traits@D@std@@V?$allocator@D@2@@2@Verror_code@2@V32@@Z 100028e0 f i Client.obj
 0001:00001990       ??0_System_error@std@@IAE@Verror_code@1@ABV?$basic_string@DU?$char_traits@D@std@@V?$allocator@D@2@@1@@Z 10002990 f i Client.obj
 0001:00001a40       ??_G_System_error@std@@UAEPAXI@Z 10002a40 f i Client.obj
 0001:00001a40       ??_Gfailure@ios_base@std@@UAEPAXI@Z 10002a40 f i Client.obj
 0001:00001a40       ??_Gsystem_error@std@@UAEPAXI@Z 10002a40 f i Client.obj
 0001:00001a40       ??_Efailure@ios_base@std@@UAEPAXI@Z 10002a40 f i * CIL library *:* CIL module *
 0001:00001a40       ??_E_System_error@std@@UAEPAXI@Z 10002a40 f i * CIL library *:* CIL module *
 0001:00001a40       ??_Esystem_error@std@@UAEPAXI@Z 10002a40 f i * CIL library *:* CIL module *
 0001:00001a70       ?message@_Generic_error_category@std@@UBE?AV?$basic_string@DU?$char_traits@D@std@@V?$allocator@D@2@@2@H@Z 10002a70 f i Client.obj
 0001:00001ae0       ?name@_Iostream_error_category@std@@UBEPBDXZ 10002ae0 f i Client.obj
 0001:00001af0       ?message@_Iostream_error_category@std@@UBE?AV?$basic_string@DU?$char_traits@D@std@@V?$allocator@D@2@@2@H@Z 10002af0 f i Client.obj
 0001:00001b40       ??0failure@ios_base@std@@QAE@PBDABVerror_code@2@@Z 10002b40 f i Client.obj
 0001:00001bf0       ?clear@ios_base@std@@QAEXH_N@Z 10002bf0 f i Client.obj
 0001:00001cb0       ?getloc@ios_base@std@@QBE?AVlocale@2@XZ 10002cb0 f i Client.obj
 0001:00001d00       ?_Init@ios_base@std@@IAEXXZ 10002d00 f i Client.obj
 0001:00001da0       ??0failure@ios_base@std@@QAE@ABV012@@Z 10002da0 f i Client.obj
 0001:00001df0       ??0system_error@std@@QAE@ABV01@@Z 10002df0 f i Client.obj
 0001:00001e40       ??0_System_error@std@@QAE@ABV01@@Z 10002e40 f i Client.obj
 0001:00001e90       ??_Eios_base@std@@UAEPAXI@Z 10002e90 f i * CIL library *:* CIL module *
 0001:00001e90       ??_Gios_base@std@@UAEPAXI@Z 10002e90 f i Client.obj
 0001:00001ef0       ?GetWeaponNameByID@cheat_s@@QAE?AV?$basic_string@DU?$char_traits@D@std@@V?$allocator@D@2@@std@@H@Z 10002ef0 f i Client.obj
 0001:000021a0       ?CharToKey@cheat_s@@QAEHQAD@Z 100031a0 f i Client.obj
 0001:000038d0       ?WorldToScreen@cheat_s@@QAE_NPAM0@Z 100048d0 f i Client.obj
 0001:00003980       ?VisibleTrace@cheat_s@@QAE_NPAM0@Z 10004980 f i Client.obj
 0001:000039f0       ?CheckEntity@cheat_s@@QAE_NPAUcl_entity_s@@@Z 100049f0 f i Client.obj
 0001:00003a50       ?GetBoneOrigin@cheat_s@@QAEXPAUcl_entity_s@@@Z 10004a50 f i Client.obj
 0001:00003af0       ?GetHitboxOrigin@cheat_s@@QAEXPAUcl_entity_s@@@Z 10004af0 f i Client.obj
 0001:00003dd0       ?DrawBox@visuals_s@@QAEXHHHHHHHHH@Z 10004dd0 f i Client.obj
 0001:00003e70       ?DrawString@visuals_s@@QAAXHHHHHPBDZZ 10004e70 f i Client.obj
 0001:00003f20       ?DrawShadowBox@visuals_s@@QAEXHHHHHHH@Z 10004f20 f i Client.obj
 0001:00003f90       ?write@@YAXPAD0V?$basic_string@DU?$char_traits@D@std@@V?$allocator@D@2@@std@@M@Z 10004f90 f   Client.obj
 0001:00004020       ?SaveSettingsForWeapons@@YAXQAD@Z 10005020 f   Client.obj
 0001:00004a80       ?SaveSettings@@YAXXZ       10005a80 f   Client.obj
 0001:000051c0       ?ResetValues@@YAXXZ        100061c0 f   Client.obj
 0001:00005270       ?ResetOpens@@YAXH@Z        10006270 f   Client.obj
 0001:000052f0       ?Entry2Push@@YAXPBDPAMMMM@Z 100062f0 f   Client.obj
 0001:000053a0       ?CreateEntrys@@YAXXZ       100063a0 f   Client.obj
 0001:00005d10       ?KeyEvent@@YAXXZ           10006d10 f   Client.obj
 0001:00005f70       ?DrawMenu@@YAXXZ           10006f70 f   Client.obj
 0001:000061a0       ??0player_s@@QAE@XZ        100071a0 f i Client.obj
 0001:000061a0       ??0soundhack_s@@QAE@XZ     100071a0 f i Client.obj
 0001:000061b0       ?CheckFOV@@YA_NVVector@@PAHM@Z 100071b0 f   Client.obj
 0001:00006220       ?CheckFOV@@YA_NVVector@@PAHMM@Z 10007220 f   Client.obj
 0001:00006290       ?MyVectorAngles@@YAXPBMPAM@Z 10007290 f   Client.obj
 0001:00006490       ?SmoothAimAngles@@YAXPAM00M@Z 10007490 f   Client.obj
 0001:00006550       ?GetRecoilVar@@YAMXZ       10007550 f   Client.obj
 0001:00006670       ?GetBulletTime@@YAHXZ      10007670 f   Client.obj
 0001:00006690       ?GetBulletDelay@@YAHXZ     10007690 f   Client.obj
 0001:000066b0       ?Aimbot@@YAXHPAUusercmd_s@@@Z 100076b0 f   Client.obj
 0001:00006970       ?Aimbot2@@YAXHPAUusercmd_s@@@Z 10007970 f   Client.obj
 0001:00006ce0       ?EngineMsgByName@@YAPAUEngineMsg@@PAD@Z 10007ce0 f   Client.obj
 0001:00006d30       ?SVC_Sound@@YAXXZ          10007d30 f   Client.obj
 0001:00006e50       ?PreS_DynamicSound@@YAXHKPADPAMKKKK@Z 10007e50 f   Client.obj
 0001:00006ef0       ?HookUserMessages@@YAXXZ   10007ef0 f   Client.obj
 0001:00006f80       ?StudioCheckBBox@@YAHXZ    10007f80 f   Client.obj
 0001:00006f80       ?do_encoding@codecvt_base@std@@MBEHXZ 10007f80 f   main.obj
 0001:00006f80       ?do_max_length@codecvt_base@std@@MBEHXZ 10007f80 f   main.obj
 0001:00006f90       ?StudioEntityLight@@YAXPAUalight_s@@@Z 10007f90 f   Client.obj
 0001:00006fe0       ?ReadSettingsForWeapons@@YAXQAD@Z 10007fe0 f   Client.obj
 0001:00007760       ?ReadSettings@@YAXQAD@Z    10008760 f   Client.obj
 0001:00007e60       ?HUD_Frame@@YAXN@Z         10008e60 f   Client.obj
 0001:000080e0       ?HUD_Redraw@@YAXMH@Z       100090e0 f   Client.obj
 0001:000098a0       ?HUD_PlayerMove@@YAXPAUplayermove_s@@H@Z 1000a8a0 f   Client.obj
 0001:00009960       ?HUD_PostRunCmd@@YAXPAUlocal_state_s@@0PAUusercmd_s@@HNI@Z 1000a960 f   Client.obj
 0001:000099f0       ?HUD_UpdateClientData@@YAHPAUclient_data_s@@M@Z 1000a9f0 f   Client.obj
 0001:00009a20       ?V_CalcRefdef@@YAXPAUref_params_s@@@Z 1000aa20 f   Client.obj
 0001:00009a60       ?Shoot@@YAXPAUusercmd_s@@@Z 1000aa60 f   Client.obj
 0001:00009a80       ?Shoot2@@YAXPAUusercmd_s@@@Z 1000aa80 f   Client.obj
 0001:00009ab0       ?CL_CreateMove@@YAXMPAUusercmd_s@@H@Z 1000aab0 f   Client.obj
 0001:0000a190       ?HUD_Key_Event@@YAHHHPBD@Z 1000b190 f   Client.obj
 0001:0000a1e0       ?push_back@?$vector@Uentry_s@@V?$allocator@Uentry_s@@@std@@@std@@QAEXABUentry_s@@@Z 1000b1e0 f i Client.obj
 0001:0000a260       ??1?$vector@Uentry_s@@V?$allocator@Uentry_s@@@std@@@std@@QAE@XZ 1000b260 f i Client.obj
 0001:0000a2a0       ??0?$vector@Uentry_s@@V?$allocator@Uentry_s@@@std@@@std@@QAE@XZ 1000b2a0 f i Client.obj
 0001:0000a2c0       ?push_back@?$deque@KV?$allocator@K@std@@@std@@QAEX$$QAK@Z 1000b2c0 f i Client.obj
 0001:0000a380       ?push_back@?$deque@VVector@@V?$allocator@VVector@@@std@@@std@@QAEX$$QAVVector@@@Z 1000b380 f i Client.obj
 0001:0000a410       ??1?$_Yarn@_W@std@@QAE@XZ  1000b410 f i Client.obj
 0001:0000a410       ??1?$_Yarn@D@std@@QAE@XZ   1000b410 f i Client.obj
 0001:0000a430       ??1?$basic_string@DU?$char_traits@D@std@@V?$allocator@D@2@@std@@QAE@XZ 1000b430 f i Client.obj
 0001:0000a470       ??0?$basic_string@DU?$char_traits@D@std@@V?$allocator@D@2@@std@@QAE@$$QAV01@@Z 1000b470 f i Client.obj
 0001:0000a4f0       ??0?$basic_string@DU?$char_traits@D@std@@V?$allocator@D@2@@std@@QAE@PBD@Z 1000b4f0 f i Client.obj
 0001:0000a550       ??1?$basic_ostream@DU?$char_traits@D@std@@@std@@UAE@XZ 1000b550 f i Client.obj
 0001:0000a570       ?imbue@?$basic_streambuf@DU?$char_traits@D@std@@@std@@MAEXABVlocale@2@@Z 1000b570 f i Client.obj
 0001:0000a570       ??$destroy@PAD@?$_Wrap_alloc@V?$allocator@D@std@@@std@@QAEXPAPAD@Z 1000b570 f i Client.obj
 0001:0000a570       ??$destroy@U_Container_proxy@std@@@?$_Wrap_alloc@V?$allocator@U_Container_proxy@std@@@std@@@std@@QAEXPAU_Container_proxy@1@@Z 1000b570 f i Client.obj
 0001:0000a580       ?sync@?$basic_streambuf@DU?$char_traits@D@std@@@std@@MAEHXZ 1000b580 f i Client.obj
 0001:0000a590       ?setbuf@?$basic_streambuf@DU?$char_traits@D@std@@@std@@MAEPAV12@PAD_J@Z 1000b590 f i Client.obj
 0001:0000a5a0       ?seekpos@?$basic_streambuf@DU?$char_traits@D@std@@@std@@MAE?AV?$fpos@U_Mbstatet@@@2@V32@H@Z 1000b5a0 f i Client.obj
 0001:0000a5e0       ?seekoff@?$basic_streambuf@DU?$char_traits@D@std@@@std@@MAE?AV?$fpos@U_Mbstatet@@@2@_JHH@Z 1000b5e0 f i Client.obj
 0001:0000a620       ?xsputn@?$basic_streambuf@DU?$char_traits@D@std@@@std@@MAE_JPBD_J@Z 1000b620 f i Client.obj
 0001:0000a710       ?xsgetn@?$basic_streambuf@DU?$char_traits@D@std@@@std@@MAE_JPAD_J@Z 1000b710 f i Client.obj
 0001:0000a800       ?uflow@?$basic_streambuf@DU?$char_traits@D@std@@@std@@MAEHXZ 1000b800 f i Client.obj
 0001:0000a830       ?underflow@?$basic_streambuf@DU?$char_traits@D@std@@@std@@MAEHXZ 1000b830 f i Client.obj
 0001:0000a840       ?showmanyc@?$basic_streambuf@DU?$char_traits@D@std@@@std@@MAE_JXZ 1000b840 f i Client.obj
 0001:0000a850       ?pbackfail@?$basic_streambuf@DU?$char_traits@D@std@@@std@@MAEHH@Z 1000b850 f i Client.obj
 0001:0000a850       ?overflow@?$basic_streambuf@DU?$char_traits@D@std@@@std@@MAEHH@Z 1000b850 f i Client.obj
 0001:0000a860       ?_Orphan_all@?$_Deque_alloc@U?$_Deque_base_types@KV?$allocator@K@std@@@std@@@std@@QAEXXZ 1000b860 f i Client.obj
 0001:0000a860       ?_Orphan_all@?$_Deque_alloc@U?$_Deque_base_types@VVector@@V?$allocator@VVector@@@std@@@std@@@std@@QAEXXZ 1000b860 f i Client.obj
 0001:0000a860       ?_Orphan_all@?$_Vector_alloc@U?$_Vec_base_types@U_UNLINKED_MODULE@@V?$allocator@U_UNLINKED_MODULE@@@std@@@std@@@std@@QAEXXZ 1000b860 f i main.obj
 0001:0000a860       ??1?$_Compressed_pair@U?$_Wrap_alloc@V?$allocator@VVector@@@std@@@std@@V?$_Deque_val@U?$_Deque_simple_types@VVector@@@std@@@2@$00@std@@QAE@XZ 1000b860 f i Client.obj
 0001:0000a860       ___except_validate_jump_buffer 1000b860 f i libvcruntime:jbcxrval.obj
 0001:0000a860       @_guard_check_icall_nop@4  1000b860 f i LIBCMT:guard_support.obj
 0001:0000a860       ?_Orphan_all@?$_Vector_alloc@U?$_Vec_base_types@UWeapon_List@@V?$allocator@UWeapon_List@@@std@@@std@@@std@@QAEXXZ 1000b860 f i weaponslist.obj
 0001:0000a860       ?_Lock@?$basic_streambuf@DU?$char_traits@D@std@@@std@@UAEXXZ 1000b860 f i Client.obj
 0001:0000a860       ??1?$_Compressed_pair@U?$_Wrap_alloc@V?$allocator@K@std@@@std@@V?$_Deque_val@U?$_Deque_simple_types@K@std@@@2@$00@std@@QAE@XZ 1000b860 f i Client.obj
 0001:0000a860       ?_Unlock@?$basic_streambuf@DU?$char_traits@D@std@@@std@@UAEXXZ 1000b860 f i Client.obj
 0001:0000a860       ___except_validate_context_record 1000b860 f i libvcruntime:jbcxrval.obj
 0001:0000a870       ??1?$basic_ios@DU?$char_traits@D@std@@@std@@UAE@XZ 1000b870 f i Client.obj
 0001:0000a8b0       ??_G?$basic_ostream@DU?$char_traits@D@std@@@std@@UAEPAXI@Z 1000b8b0 f i Client.obj
 0001:0000a8b0       ??_E?$basic_ostream@DU?$char_traits@D@std@@@std@@UAEPAXI@Z 1000b8b0 f i * CIL library *:* CIL module *
 0001:0000a930       ??_G?$basic_streambuf@DU?$char_traits@D@std@@@std@@UAEPAXI@Z 1000b930 f i Client.obj
 0001:0000a930       ??_E?$basic_streambuf@DU?$char_traits@D@std@@@std@@UAEPAXI@Z 1000b930 f i * CIL library *:* CIL module *
 0001:0000a9b0       ?_Reserve@?$vector@Uentry_s@@V?$allocator@Uentry_s@@@std@@@std@@IAEXI@Z 1000b9b0 f i Client.obj
 0001:0000aa50       ??H?$_Deque_iterator@V?$_Deque_val@U?$_Deque_simple_types@K@std@@@std@@@std@@QBE?AV01@H@Z 1000ba50 f i Client.obj
 0001:0000aa90       ??0?$_Deque_alloc@U?$_Deque_base_types@KV?$allocator@K@std@@@std@@@std@@QAE@ABV?$allocator@K@1@@Z 1000ba90 f i Client.obj
 0001:0000ab00       ?_Tidy@?$deque@KV?$allocator@K@std@@@std@@IAEXXZ 1000bb00 f i Client.obj
 0001:0000abc0       ?_Growmap@?$deque@KV?$allocator@K@std@@@std@@IAEXI@Z 1000bbc0 f i Client.obj
 0001:0000ad10       ?begin@?$deque@KV?$allocator@K@std@@@std@@QAE?AV?$_Deque_iterator@V?$_Deque_val@U?$_Deque_simple_types@K@std@@@std@@@2@XZ 1000bd10 f i Client.obj
 0001:0000ad40       ??H?$_Deque_iterator@V?$_Deque_val@U?$_Deque_simple_types@VVector@@@std@@@std@@@std@@QBE?AV01@H@Z 1000bd40 f i Client.obj
 0001:0000ad80       ??0?$_Deque_alloc@U?$_Deque_base_types@VVector@@V?$allocator@VVector@@@std@@@std@@@std@@QAE@ABV?$allocator@VVector@@@1@@Z 1000bd80 f i Client.obj
 0001:0000adf0       ?_Tidy@?$deque@VVector@@V?$allocator@VVector@@@std@@@std@@IAEXXZ 1000bdf0 f i Client.obj
 0001:0000aeb0       ?_Growmap@?$deque@VVector@@V?$allocator@VVector@@@std@@@std@@IAEXI@Z 1000beb0 f i Client.obj
 0001:0000b000       ?begin@?$deque@VVector@@V?$allocator@VVector@@@std@@@std@@QAE?AV?$_Deque_iterator@V?$_Deque_val@U?$_Deque_simple_types@VVector@@@std@@@std@@@2@XZ 1000c000 f i Client.obj
 0001:0000b030       ?_Tidy@?$basic_string@DU?$char_traits@D@std@@V?$allocator@D@2@@std@@QAEX_NI@Z 1000c030 f i Client.obj
 0001:0000b090       ?erase@?$basic_string@DU?$char_traits@D@std@@V?$allocator@D@2@@std@@QAEAAV12@II@Z 1000c090 f i Client.obj
 0001:0000b130       ?assign@?$basic_string@DU?$char_traits@D@std@@V?$allocator@D@2@@std@@QAEAAV12@ID@Z 1000c130 f i Client.obj
 0001:0000b1c0       ?assign@?$basic_string@DU?$char_traits@D@std@@V?$allocator@D@2@@std@@QAEAAV12@PBDI@Z 1000c1c0 f i Client.obj
 0001:0000b280       ?assign@?$basic_string@DU?$char_traits@D@std@@V?$allocator@D@2@@std@@QAEAAV12@ABV12@II@Z 1000c280 f i Client.obj
 0001:0000b370       ?append@?$basic_string@DU?$char_traits@D@std@@V?$allocator@D@2@@std@@QAEAAV12@ID@Z 1000c370 f i Client.obj
 0001:0000b410       ?append@?$basic_string@DU?$char_traits@D@std@@V?$allocator@D@2@@std@@QAEAAV12@PBDI@Z 1000c410 f i Client.obj
 0001:0000b500       ?append@?$basic_string@DU?$char_traits@D@std@@V?$allocator@D@2@@std@@QAEAAV12@ABV12@II@Z 1000c500 f i Client.obj
 0001:0000b5c0       ?_Pnavail@?$basic_streambuf@DU?$char_traits@D@std@@@std@@IBE_JXZ 1000c5c0 f i Client.obj
 0001:0000b5e0       ?_Gnavail@?$basic_streambuf@DU?$char_traits@D@std@@@std@@IBE_JXZ 1000c5e0 f i Client.obj
 0001:0000b600       ?deallocate@?$_Wrap_alloc@V?$allocator@Uentry_s@@@std@@@std@@QAEXPAUentry_s@@I@Z 1000c600 f i Client.obj
 0001:0000b660       ?_Reallocate@?$vector@Uentry_s@@V?$allocator@Uentry_s@@@std@@@std@@IAEXI@Z 1000c660 f i Client.obj
 0001:0000b6f0       ?deallocate@?$_Wrap_alloc@V?$allocator@PAVVector@@@std@@@std@@QAEXPAPAVVector@@I@Z 1000c6f0 f i Client.obj
 0001:0000b6f0       ?deallocate@?$_Wrap_alloc@V?$allocator@PAK@std@@@std@@QAEXPAPAKI@Z 1000c6f0 f i Client.obj
 0001:0000b750       ?deallocate@?$_Wrap_alloc@V?$allocator@D@std@@@std@@QAEXPADI@Z 1000c750 f i Client.obj
 0001:0000b7b0       ??0?$_Wrap_alloc@V?$allocator@D@std@@@std@@QAE@ABV?$allocator@D@1@@Z 1000c7b0 f i Client.obj
 0001:0000b7b0       ??$?0U?$_Wrap_alloc@V?$allocator@VVector@@@std@@@std@@@?$_Wrap_alloc@V?$allocator@U_Container_proxy@std@@@std@@@std@@QAE@AAU?$_Wrap_alloc@V?$allocator@VVector@@@std@@@1@@Z 1000c7b0 f i Client.obj
 0001:0000b7b0       ??$?0U?$_Wrap_alloc@V?$allocator@K@std@@@std@@@?$_Wrap_alloc@V?$allocator@U_Container_proxy@std@@@std@@@std@@QAE@AAU?$_Wrap_alloc@V?$allocator@K@std@@@1@@Z 1000c7b0 f i Client.obj
 0001:0000b7c0       ?_Grow@?$basic_string@DU?$char_traits@D@std@@V?$allocator@D@2@@std@@QAE_NI_N@Z 1000c7c0 f i Client.obj
 0001:0000b840       ?allocate@?$allocator@PAVVector@@@std@@QAEPAPAVVector@@I@Z 1000c840 f i Client.obj
 0001:0000b840       ?allocate@?$allocator@PAK@std@@QAEPAPAKI@Z 1000c840 f i Client.obj
 0001:0000b8b0       ?_Copy@?$basic_string@DU?$char_traits@D@std@@V?$allocator@D@2@@std@@QAEXII@Z 1000c8b0 f i Client.obj
 0001:0000ba30       ?allocate@?$allocator@Uentry_s@@@std@@QAEPAUentry_s@@I@Z 1000ca30 f i Client.obj
 0001:0000baa0       ?allocate@?$_Wrap_alloc@V?$allocator@D@std@@@std@@QAEPADI@Z 1000caa0 f i Client.obj
 0001:0000bb10       ??$use_facet@V?$ctype@D@std@@@std@@YAABV?$ctype@D@0@ABVlocale@0@@Z 1000cb10 f i Client.obj
 0001:0000bc30       ??$_Immortalize@V_Iostream_error_category@std@@@std@@YAAAV_Iostream_error_category@0@XZ 1000cc30 f i Client.obj
 0001:0000bca0       ??$?HDU?$char_traits@D@std@@V?$allocator@D@1@@std@@YA?AV?$basic_string@DU?$char_traits@D@std@@V?$allocator@D@2@@0@ABV10@PBD@Z 1000cca0 f i Client.obj
 0001:0000bda0       ??0bad_cast@std@@QAE@ABV01@@Z 1000cda0 f i Client.obj
 0001:0000bde0       ?init@?$basic_ios@DU?$char_traits@D@std@@@std@@IAEXPAV?$basic_streambuf@DU?$char_traits@D@std@@@2@_N@Z 1000cde0 f i Client.obj
 0001:0000be90       ??$_Uninit_move@PAUentry_s@@PAU1@V?$allocator@Uentry_s@@@std@@U1@@std@@YAPAUentry_s@@PAU1@00AAU?$_Wrap_alloc@V?$allocator@Uentry_s@@@std@@@0@0U_Nonscalar_ptr_iterator_tag@0@@Z 1000ce90 f i Client.obj
 0001:0000bebf       ??_E?$basic_ostream@DU?$char_traits@D@std@@@std@@$4PPPPPPPM@A@AEPAXI@Z 1000cebf f i Client.obj
 0001:0000bed0       ?UnlinkModuleFromPEB@@YAXPAUHINSTANCE__@@@Z 1000ced0 f   main.obj
 0001:0000bf90       ?RemoveHeader@@YA_NPAUHINSTANCE__@@@Z 1000cf90 f   main.obj
 0001:0000c030       ?HideThread@@YA_NPAX@Z     1000d030 f   main.obj
 0001:0000c080       ?m_glReadPixels@@YGXHHHHIIPAX@Z 1000d080 f   main.obj
 0001:0000c1b0       ?SetupHook@@YAXXZ          1000d1b0 f   main.obj
 0001:0000c370       _DllMain@12                1000d370 f   main.obj
 0001:0000c3e0       ?push_back@?$vector@U_UNLINKED_MODULE@@V?$allocator@U_UNLINKED_MODULE@@@std@@@std@@QAEXABU_UNLINKED_MODULE@@@Z 1000d3e0 f i main.obj
 0001:0000c4a0       ??0?$basic_ofstream@DU?$char_traits@D@std@@@std@@QAE@XZ 1000d4a0 f i main.obj
 0001:0000c550       ?imbue@?$basic_filebuf@DU?$char_traits@D@std@@@std@@MAEXABVlocale@2@@Z 1000d550 f i main.obj
 0001:0000c570       ?sync@?$basic_filebuf@DU?$char_traits@D@std@@@std@@MAEHXZ 1000d570 f i main.obj
 0001:0000c5a0       ?setbuf@?$basic_filebuf@DU?$char_traits@D@std@@@std@@MAEPAV?$basic_streambuf@DU?$char_traits@D@std@@@2@PAD_J@Z 1000d5a0 f i main.obj
 0001:0000c5f0       ?seekpos@?$basic_filebuf@DU?$char_traits@D@std@@@std@@MAE?AV?$fpos@U_Mbstatet@@@2@V32@H@Z 1000d5f0 f i main.obj
 0001:0000c6f0       ?seekoff@?$basic_filebuf@DU?$char_traits@D@std@@@std@@MAE?AV?$fpos@U_Mbstatet@@@2@_JHH@Z 1000d6f0 f i main.obj
 0001:0000c800       ?uflow@?$basic_filebuf@DU?$char_traits@D@std@@@std@@MAEHXZ 1000d800 f i main.obj
 0001:0000ca20       ?underflow@?$basic_filebuf@DU?$char_traits@D@std@@@std@@MAEHXZ 1000da20 f i main.obj
 0001:0000ca60       ?pbackfail@?$basic_filebuf@DU?$char_traits@D@std@@@std@@MAEHH@Z 1000da60 f i main.obj
 0001:0000caf0       ?overflow@?$basic_filebuf@DU?$char_traits@D@std@@@std@@MAEHH@Z 1000daf0 f i main.obj
 0001:0000ccf0       ?_Unlock@?$basic_filebuf@DU?$char_traits@D@std@@@std@@UAEXXZ 1000dcf0 f i main.obj
 0001:0000cd00       ?_Lock@?$basic_filebuf@DU?$char_traits@D@std@@@std@@UAEXXZ 1000dd00 f i main.obj
 0001:0000cd10       ??1?$basic_filebuf@DU?$char_traits@D@std@@@std@@UAE@XZ 1000dd10 f i main.obj
 0001:0000cdd0       ??_E?$basic_ofstream@DU?$char_traits@D@std@@@std@@UAEPAXI@Z 1000ddd0 f i * CIL library *:* CIL module *
 0001:0000cdd0       ??_G?$basic_ofstream@DU?$char_traits@D@std@@@std@@UAEPAXI@Z 1000ddd0 f i main.obj
 0001:0000ce70       ??_E?$basic_filebuf@DU?$char_traits@D@std@@@std@@UAEPAXI@Z 1000de70 f i * CIL library *:* CIL module *
 0001:0000ce70       ??_G?$basic_filebuf@DU?$char_traits@D@std@@@std@@UAEPAXI@Z 1000de70 f i main.obj
 0001:0000cea0       ?_Reserve@?$vector@U_UNLINKED_MODULE@@V?$allocator@U_UNLINKED_MODULE@@@std@@@std@@IAEXI@Z 1000dea0 f i main.obj
 0001:0000cf40       ?do_length@?$codecvt@DDU_Mbstatet@@@std@@MBEHAAU_Mbstatet@@PBD1I@Z 1000df40 f i main.obj
 0001:0000cf60       ?do_unshift@?$codecvt@DDU_Mbstatet@@@std@@MBEHAAU_Mbstatet@@PAD1AAPAD@Z 1000df60 f i main.obj
 0001:0000cf80       ?do_in@?$codecvt@DDU_Mbstatet@@@std@@MBEHAAU_Mbstatet@@PBD1AAPBDPAD3AAPAD@Z 1000df80 f i main.obj
 0001:0000cf80       ?do_out@?$codecvt@DDU_Mbstatet@@@std@@MBEHAAU_Mbstatet@@PBD1AAPBDPAD3AAPAD@Z 1000df80 f i main.obj
 0001:0000cfa0       ?do_always_noconv@?$codecvt@DDU_Mbstatet@@@std@@MBE_NXZ 1000dfa0 f i main.obj
 0001:0000cfa0       ___acrt_uninitialize_command_line 1000dfa0 f i libucrt:argv_data.obj
 0001:0000cfb0       ?_Set_back@?$basic_filebuf@DU?$char_traits@D@std@@@std@@AAEXXZ 1000dfb0 f i main.obj
 0001:0000cff0       ?_Reset_back@?$basic_filebuf@DU?$char_traits@D@std@@@std@@AAEXXZ 1000dff0 f i main.obj
 0001:0000d020       ?_Initcvt@?$basic_filebuf@DU?$char_traits@D@std@@@std@@IAEXPBV?$codecvt@DDU_Mbstatet@@@2@@Z 1000e020 f i main.obj
 0001:0000d0b0       ?_Endwrite@?$basic_filebuf@DU?$char_traits@D@std@@@std@@IAE_NXZ 1000e0b0 f i main.obj
 0001:0000d210       ?_Init@?$basic_filebuf@DU?$char_traits@D@std@@@std@@IAEXPAU_iobuf@@W4_Initfl@12@@Z 1000e210 f i main.obj
 0001:0000d2f0       ??0?$basic_filebuf@DU?$char_traits@D@std@@@std@@QAE@PAU_iobuf@@@Z 1000e2f0 f i main.obj
 0001:0000d3c0       ??_E?$codecvt@DDU_Mbstatet@@@std@@MAEPAXI@Z 1000e3c0 f i * CIL library *:* CIL module *
 0001:0000d3c0       ??_G?$codecvt@DDU_Mbstatet@@@std@@MAEPAXI@Z 1000e3c0 f i main.obj
 0001:0000d3f0       ?deallocate@?$_Wrap_alloc@V?$allocator@U_UNLINKED_MODULE@@@std@@@std@@QAEXPAU_UNLINKED_MODULE@@I@Z 1000e3f0 f i main.obj
 0001:0000d450       ?_Reallocate@?$vector@U_UNLINKED_MODULE@@V?$allocator@U_UNLINKED_MODULE@@@std@@@std@@IAEXI@Z 1000e450 f i main.obj
 0001:0000d4f0       ?_Destroy@?$vector@UWeapon_List@@V?$allocator@UWeapon_List@@@std@@@std@@IAEXPAUWeapon_List@@0@Z 1000e4f0 f i weaponslist.obj
 0001:0000d4f0       ?_Destroy@?$vector@U_UNLINKED_MODULE@@V?$allocator@U_UNLINKED_MODULE@@@std@@@std@@IAEXPAU_UNLINKED_MODULE@@0@Z 1000e4f0 f i main.obj
 0001:0000d500       ?allocate@?$allocator@U_UNLINKED_MODULE@@@std@@QAEPAU_UNLINKED_MODULE@@I@Z 1000e500 f i main.obj
 0001:0000d570       ??$use_facet@V?$codecvt@DDU_Mbstatet@@@std@@@std@@YAABV?$codecvt@DDU_Mbstatet@@@0@ABVlocale@0@@Z 1000e570 f i main.obj
 0001:0000d690       ??0?$_Wrap_alloc@V?$allocator@U_UNLINKED_MODULE@@@std@@@std@@QAE@ABV?$allocator@U_UNLINKED_MODULE@@@1@@Z 1000e690 f i main.obj
 0001:0000d6a0       ?_Getcat@?$codecvt@DDU_Mbstatet@@@std@@SAIPAPBVfacet@locale@2@PBV42@@Z 1000e6a0 f i main.obj
 0001:0000d740       ??$_Uninit_move@PAU_UNLINKED_MODULE@@PAU1@V?$allocator@U_UNLINKED_MODULE@@@std@@U1@@std@@YAPAU_UNLINKED_MODULE@@PAU1@00AAU?$_Wrap_alloc@V?$allocator@U_UNLINKED_MODULE@@@std@@@0@0U_Nonscalar_ptr_iterator_tag@0@@Z 1000e740 f i main.obj
 0001:0000d77d       ??_E?$basic_ofstream@DU?$char_traits@D@std@@@std@@$4PPPPPPPM@A@AEPAXI@Z 1000e77d f i main.obj
 0001:0000d790       ?Normalize@Vector@@QBE?AV1@XZ 1000e790 f i nospread.obj
 0001:0000d820       ?UTIL_SharedRandomFloat@cNoSpread@@AAEMIMM@Z 1000e820 f   nospread.obj
 0001:0000d8f0       ?GetVecSpread@cNoSpread@@AAEMM@Z 1000e8f0 f   nospread.obj
 0001:0000fb40       ?GetSpreadXY@cNoSpread@@AAEXIHPAM0@Z 10010b40 f   nospread.obj
 0001:0000fc40       ?GetSpreadOffset@cNoSpread@@QAEXIHPAM00@Z 10010c40 f   nospread.obj
 0001:0000fd10       ?VectorAngles@cNoSpread@@AAEXPBMPAM@Z 10010d10 f   nospread.obj
 0001:0000fdf0       ?DefaultSpreadVar@cNoSpread@@QAEXH@Z 10010df0 f   nospread.obj
 0001:0000fed0       ?HUD_PostRunCmd@cNoSpread@@QAEXPAUlocal_state_s@@0PAUusercmd_s@@HNI@Z 10010ed0 f   nospread.obj
 0001:000101e0       ?PrimaryAttack@cNoSpread@@AAEXXZ 100111e0 f   nospread.obj
 0001:00010a60       ?ApplySilentAngles@cNoSpread@@QAEXPAMPAUusercmd_s@@_N@Z 10011a60 f   nospread.obj
 0001:00010e10       ?DrawSpread@cNoSpread@@QAEXXZ 10011e10 f   nospread.obj
 0001:00010f40       ?GetRendererInfo@AutoOffset@@QAE_NXZ 10011f40 f   Offset.obj
 0001:000110c0       ?Error@AutoOffset@@QAEXQAD@Z 100120c0 f   Offset.obj
 0001:000110e0       ?__findmemoryclone@AutoOffset@@AAEKKKKI@Z 100120e0 f   Offset.obj
 0001:00011130       ?EngineFuncs@AutoOffset@@QAEPAXXZ 10012130 f   Offset.obj
 0001:000111a0       ?FindUserMsgBase@AutoOffset@@QAEPAUTUserMsg@@XZ 100121a0 f   Offset.obj
 0001:00011240       ?MessagePtr@AutoOffset@@QAEKQADE@Z 10012240 f   Offset.obj
 0001:000112b0       ?FindPattern@@YAKPAD0KKK@Z 100122b0 f   Offset.obj
 0001:00011320       ?FindSVCMessages@AutoOffset@@QAEKXZ 10012320 f   Offset.obj
 0001:00011410       ?Sound@AutoOffset@@QAEPAXXZ 10012410 f   Offset.obj
 0001:00011460       ?ResetHUD@@YAHPBDHPAX@Z    10012460 f   UserMsgs.obj
 0001:00011480       ?SetFOV@@YAHPBDHPAX@Z      10012480 f   UserMsgs.obj
 0001:000114e0       ?TeamInfo@@YAHPBDHPAX@Z    100124e0 f   UserMsgs.obj
 0001:00011610       ?WeaponList@@YAHPBDHPAX@Z  10012610 f   UserMsgs.obj
 0001:00011760       ?AmmoX@@YAHPBDHPAX@Z       10012760 f   UserMsgs.obj
 0001:000117d0       ?CurWeapon@@YAHPBDHPAX@Z   100127d0 f   UserMsgs.obj
 0001:000118e0       ?DeathMsg@@YAHPBDHPAX@Z    100128e0 f   UserMsgs.obj
 0001:000118f0       ?UserMsgByName@@YAPAUTUserMsg@@PAD@Z 100128f0 f   Utils.obj
 0001:00011960       ?HookUserMsg@@YAP6AHPBDHPAX@ZPADP6AH0H1@Z@Z 10012960 f   Utils.obj
 0001:000119e0       ?READ_STRING@@YAPADXZ      100129e0 f   parsemsg.obj
 0001:00011a40       ?IsCurWeaponSilenced@@YA_NXZ 10012a40 f   weaponslist.obj
 0001:00011ac0       ?IsCurWeaponInBurst@@YA_NXZ 10012ac0 f   weaponslist.obj
 0001:00011b30       ?GetCurWeapon@@YAPAUWeapon_List@@XZ 10012b30 f   weaponslist.obj
 0001:00011b90       ?CanCurWeaponAttack@@YA_NXZ 10012b90 f   weaponslist.obj
 0001:00011c00       ?GetCurWeaponId@@YAHXZ     10012c00 f   weaponslist.obj
 0001:00011c60       ?IsCurWeaponSec@@YA_NXZ    10012c60 f   weaponslist.obj
 0001:00011cc0       ?WeaponListUpdate@@YAXH@Z  10012cc0 f   weaponslist.obj
 0001:00011d70       ?WeaponListAmmoX@@YAXHH@Z  10012d70 f   weaponslist.obj
 0001:00011e00       ?SetWeaponData@@YAXPAUWeapon_List@@@Z 10012e00 f   weaponslist.obj
 0001:00012440       ?WeaponListAdd@@YAXPBDHHHHHHHH@Z 10013440 f   weaponslist.obj
 0001:00012620       ?push_back@?$vector@UWeapon_List@@V?$allocator@UWeapon_List@@@std@@@std@@QAEXABUWeapon_List@@@Z 10013620 f i weaponslist.obj
 0001:000126b0       ?_Reserve@?$vector@UWeapon_List@@V?$allocator@UWeapon_List@@@std@@@std@@IAEXI@Z 100136b0 f i weaponslist.obj
 0001:00012750       ?deallocate@?$_Wrap_alloc@V?$allocator@UWeapon_List@@@std@@@std@@QAEXPAUWeapon_List@@I@Z 10013750 f i weaponslist.obj
 0001:000127b0       ?_Reallocate@?$vector@UWeapon_List@@V?$allocator@UWeapon_List@@@std@@@std@@IAEXI@Z 100137b0 f i weaponslist.obj
 0001:00012850       ?allocate@?$allocator@UWeapon_List@@@std@@QAEPAUWeapon_List@@I@Z 10013850 f i weaponslist.obj
 0001:000128c0       ??0?$_Wrap_alloc@V?$allocator@UWeapon_List@@@std@@@std@@QAE@ABV?$allocator@UWeapon_List@@@1@@Z 100138c0 f i weaponslist.obj
 0001:000128d0       ??$_Uninit_move@PAUWeapon_List@@PAU1@V?$allocator@UWeapon_List@@@std@@U1@@std@@YAPAUWeapon_List@@PAU1@00AAU?$_Wrap_alloc@V?$allocator@UWeapon_List@@@std@@@0@0U_Nonscalar_ptr_iterator_tag@0@@Z 100138d0 f i weaponslist.obj
 0001:00012904       ??_V@YAXPAX@Z              10013904 f   LIBCMT:delete_array.obj
 0001:000129e5       __Init_thread_footer       100139e5 f   LIBCMT:thread_safe_statics.obj
 0001:00012a24       __Init_thread_header       10013a24 f   LIBCMT:thread_safe_statics.obj
 0001:00012a6a       __Init_thread_lock         10013a6a f   LIBCMT:thread_safe_statics.obj
 0001:00012a76       __Init_thread_notify       10013a76 f   LIBCMT:thread_safe_statics.obj
 0001:00012ab7       __Init_thread_unlock       10013ab7 f   LIBCMT:thread_safe_statics.obj
 0001:00012ac3       __Init_thread_wait         10013ac3 f   LIBCMT:thread_safe_statics.obj
 0001:00012b28       ??2@YAPAXI@Z               10013b28 f   LIBCMT:new_scalar.obj
 0001:00012b5b       ??_M@YGXPAXIIP6EX0@Z@Z     10013b5b f   LIBCMT:ehvecdtr.obj
 0001:00012bd5       ?__ArrayUnwind@@YGXPAXIIP6EX0@Z@Z 10013bd5 f   LIBCMT:ehvecdtr.obj
 0001:00012c86       ___scrt_acquire_startup_lock 10013c86 f   LIBCMT:utility.obj
 0001:00012cbb       ___scrt_dllmain_after_initialize_c 10013cbb f   LIBCMT:utility.obj
 0001:00012cd3       ___scrt_dllmain_before_initialize_c 10013cd3 f   LIBCMT:utility.obj
 0001:00012ce1       ___scrt_dllmain_crt_thread_attach 10013ce1 f   LIBCMT:utility.obj
 0001:00012d00       ___scrt_dllmain_crt_thread_detach 10013d00 f   LIBCMT:utility.obj
 0001:00012d0d       ___scrt_dllmain_exception_filter 10013d0d f   LIBCMT:utility.obj
 0001:00012d40       ___scrt_dllmain_uninitialize_c 10013d40 f   LIBCMT:utility.obj
 0001:00012d63       ___scrt_dllmain_uninitialize_critical 10013d63 f   LIBCMT:utility.obj
 0001:00012d70       ___scrt_initialize_crt     10013d70 f   LIBCMT:utility.obj
 0001:00012da9       ___scrt_initialize_onexit_tables 10013da9 f   LIBCMT:utility.obj
 0001:00012e40       ___scrt_is_nonwritable_in_current_image 10013e40 f   LIBCMT:utility.obj
 0001:00012ecd       ___scrt_release_startup_lock 10013ecd f   LIBCMT:utility.obj
 0001:00012eea       ___scrt_uninitialize_crt   10013eea f   LIBCMT:utility.obj
 0001:00012f12       __onexit                   10013f12 f   LIBCMT:utility.obj
 0001:00012f4d       _atexit                    10013f4d f   LIBCMT:utility.obj
 0001:00012f62       ??3@YAXPAX@Z               10013f62 f   LIBCMT:delete_scalar.obj
 0001:00012f67       ??3@YAXPAXI@Z              10013f67 f   LIBCMT:delete_scalar_size.obj
 0001:00012f75       ??_U@YAPAXI@Z              10013f75 f   LIBCMT:new_array.obj
 0001:00012f7e       ??_Gtype_info@@UAEPAXI@Z   10013f7e f i LIBCMT:std_type_info_static.obj
 0001:00012f7e       ??_Etype_info@@UAEPAXI@Z   10013f7e f i LIBCMT:std_type_info_static.obj
 0001:00012fa1       ??_L@YGXPAXIIP6EX0@Z1@Z    10013fa1 f   LIBCMT:ehvecctr.obj
 0001:0001331f       __DllMainCRTStartup@12     1001431f f   LIBCMT:dll_dllmain.obj
 0001:00013342       ___scrt_fastfail           10014342 f   LIBCMT:utility_desktop.obj
 0001:0001345d       __crt_debugger_hook        1001445d f   LIBCMT:utility_desktop.obj
 0001:00013465       @_guard_check_icall@4      10014465 f i LIBCMT:checkcfg.obj
 0001:0001346b       ??0bad_alloc@std@@QAE@ABV01@@Z 1001446b f i LIBCMT:throw_bad_alloc.obj
 0001:0001348c       ??0bad_alloc@std@@QAE@XZ   1001448c f i LIBCMT:throw_bad_alloc.obj
 0001:000134a4       ??0bad_array_new_length@std@@QAE@ABV01@@Z 100144a4 f i LIBCMT:throw_bad_alloc.obj
 0001:000134c5       ??0bad_array_new_length@std@@QAE@XZ 100144c5 f i LIBCMT:throw_bad_alloc.obj
 0001:000134dd       ?_Xbad_alloc@std@@YAXXZ    100144dd f   libcpmt:xthrow.obj
 0001:000134dd       ?__scrt_throw_std_bad_alloc@@YAXXZ 100144dd f   LIBCMT:throw_bad_alloc.obj
 0001:000134fa       ?__scrt_throw_std_bad_array_new_length@@YAXXZ 100144fa f   LIBCMT:throw_bad_alloc.obj
 0001:00013520       __SEH_prolog4              10014520 f   LIBCMT:_sehprolg4_.obj
 0001:00013566       __SEH_epilog4              10014566 f   LIBCMT:_sehprolg4_.obj
 0001:0001357b       ___isa_available_init      1001457b f   LIBCMT:_cpu_disp_.obj
 0001:0001371c       ___scrt_is_ucrt_dll_in_use 1001471c f   LIBCMT:ucrt_detection.obj
 0001:00013728       ___security_init_cookie    10014728 f   LIBCMT:gs_support.obj
 0001:000137c4       ?__scrt_initialize_type_info@@YAXXZ 100147c4 f   LIBCMT:tncleanup.obj
 0001:000137d0       ?__scrt_uninitialize_type_info@@YAXXZ 100147d0 f   LIBCMT:tncleanup.obj
 0001:000137dc       ___local_stdio_scanf_options 100147dc f i LIBCMT:default_local_stdio_options.obj
 0001:000137e2       ___scrt_initialize_default_local_stdio_options 100147e2 f   LIBCMT:default_local_stdio_options.obj
 0001:000137ff       ___scrt_get_dyn_tls_init_callback 100147ff f   LIBCMT:dyn_tls_init.obj
 0001:00013805       __RTC_Initialize           10014805 f   LIBCMT:_initsect_.obj
 0001:00013830       __RTC_Terminate            10014830 f   LIBCMT:_initsect_.obj
 0001:0001385b       @__security_check_cookie@4 1001485b f   LIBCMT:_secchk_.obj
 0001:0001386c       ___raise_securityfailure   1001486c f   LIBCMT:gs_report.obj
 0001:00013894       ___report_gsfailure        10014894 f   LIBCMT:gs_report.obj
 0001:0001398f       ___report_rangecheckfailure 1001498f f   LIBCMT:gs_report.obj
 0001:0001399b       ___report_securityfailure  1001499b f   LIBCMT:gs_report.obj
 0001:00013a6b       ??0_Init_locks@std@@QAE@XZ 10014a6b f   libcpmt:xlock.obj
 0001:00013a98       ??0_Lockit@std@@QAE@H@Z    10014a98 f   libcpmt:xlock.obj
 0001:00013ac9       ??1_Init_locks@std@@QAE@XZ 10014ac9 f   libcpmt:xlock.obj
 0001:00013af0       ??1_Lockit@std@@QAE@XZ     10014af0 f   libcpmt:xlock.obj
 0001:00013b0f       ??0_Locimp@locale@std@@AAE@_N@Z 10014b0f f i libcpmt:locale0.obj
 0001:00013b52       ??1_Fac_node@std@@QAE@XZ   10014b52 f i libcpmt:locale0.obj
 0001:00013bb1       ??1_Fac_tidy_reg_t@std@@QAE@XZ 10014bb1 f i libcpmt:locale0.obj
 0001:00013bd8       ??1_Locimp@locale@std@@MAE@XZ 10014bd8 f i libcpmt:locale0.obj
 0001:00013c33       ??4?$_Yarn@D@std@@QAEAAV01@PBD@Z 10014c33 f i libcpmt:locale0.obj
 0001:00013c87       ??_G_Locimp@locale@std@@MAEPAXI@Z 10014c87 f i libcpmt:locale0.obj
 0001:00013c87       ??_E_Locimp@locale@std@@MAEPAXI@Z 10014c87 f i libcpmt:locale0.obj
 0001:00013ca9       ?_Facet_Register@std@@YAXPAV_Facet_base@1@@Z 10014ca9 f   libcpmt:locale0.obj
 0001:00013cd7       ?_Getgloballocale@locale@std@@CAPAV_Locimp@12@XZ 10014cd7 f   libcpmt:locale0.obj
 0001:00013cdd       ?_Init@locale@std@@CAPAV_Locimp@12@_N@Z 10014cdd f   libcpmt:locale0.obj
 0001:00013d6b       ?_Locimp_dtor@_Locimp@locale@std@@CAXPAV123@@Z 10014d6b f   libcpmt:locale0.obj
 0001:00013de0       ?_Locinfo_ctor@_Locinfo@std@@SAXPAV12@PBD@Z 10014de0 f   libcpmt:locale0.obj
 0001:00013e2b       ?_Locinfo_dtor@_Locinfo@std@@SAXPAV12@@Z 10014e2b f   libcpmt:locale0.obj
 0001:00013e4d       ?_New_Locimp@_Locimp@locale@std@@CAPAV123@_N@Z 10014e4d f   libcpmt:locale0.obj
 0001:00013e72       ?_Setgloballocale@locale@std@@CAXPAX@Z 10014e72 f   libcpmt:locale0.obj
 0001:00013e9a       __Deletegloballocale       10014e9a f   libcpmt:locale0.obj
 0001:00013eff       ??0length_error@std@@QAE@ABV01@@Z 10014eff f i libcpmt:xthrow.obj
 0001:00013f20       ??0length_error@std@@QAE@PBD@Z 10014f20 f i libcpmt:xthrow.obj
 0001:00013f41       ??0logic_error@std@@QAE@ABV01@@Z 10014f41 f i libcpmt:xthrow.obj
 0001:00013f62       ??0out_of_range@std@@QAE@ABV01@@Z 10014f62 f i libcpmt:xthrow.obj
 0001:00013f83       ??0out_of_range@std@@QAE@PBD@Z 10014f83 f i libcpmt:xthrow.obj
 0001:00013fa4       ??_Eout_of_range@std@@UAEPAXI@Z 10014fa4 f i libcpmt:xthrow.obj
 0001:00013fa4       ??_Ebad_exception@std@@UAEPAXI@Z 10014fa4 f i libvcruntime:frame.obj
 0001:00013fa4       ??_Gbad_alloc@std@@UAEPAXI@Z 10014fa4 f i LIBCMT:throw_bad_alloc.obj
 0001:00013fa4       ??_Ebad_alloc@std@@UAEPAXI@Z 10014fa4 f i LIBCMT:throw_bad_alloc.obj
 0001:00013fa4       ??_Gbad_exception@std@@UAEPAXI@Z 10014fa4 f i libvcruntime:frame.obj
 0001:00013fa4       ??_Gout_of_range@std@@UAEPAXI@Z 10014fa4 f i libcpmt:xthrow.obj
 0001:00013fa4       ??_Elength_error@std@@UAEPAXI@Z 10014fa4 f i libcpmt:xthrow.obj
 0001:00013fa4       ??_Elogic_error@std@@UAEPAXI@Z 10014fa4 f i libcpmt:xthrow.obj
 0001:00013fa4       ??_Glogic_error@std@@UAEPAXI@Z 10014fa4 f i libcpmt:xthrow.obj
 0001:00013fa4       ??_Glength_error@std@@UAEPAXI@Z 10014fa4 f i libcpmt:xthrow.obj
 0001:00013fa4       ??_Ebad_array_new_length@std@@UAEPAXI@Z 10014fa4 f i LIBCMT:throw_bad_alloc.obj
 0001:00013fa4       ??_Gbad_array_new_length@std@@UAEPAXI@Z 10014fa4 f i LIBCMT:throw_bad_alloc.obj
 0001:00013fd1       ?_Xlength_error@std@@YAXPBD@Z 10014fd1 f   libcpmt:xthrow.obj
 0001:00013ff1       ?_Xout_of_range@std@@YAXPBD@Z 10014ff1 f   libcpmt:xthrow.obj
 0001:00014011       ?_Callfns@ios_base@std@@AAEXW4event@12@@Z 10015011 f i libcpmt:ios.obj
 0001:00014043       ?_Ios_base_dtor@ios_base@std@@CAXPAV12@@Z 10015043 f   libcpmt:ios.obj
 0001:00014083       ?_Tidy@ios_base@std@@AAEXXZ 10015083 f i libcpmt:ios.obj
 0001:000140cb       ?_Syserror_map@std@@YAPBDH@Z 100150cb f   libcpmt:syserror.obj
 0001:000140f0       __Getctype                 100150f0 f   libcpmt:_tolower.obj
 0001:0001415b       __Tolower                  1001515b f   libcpmt:_tolower.obj
 0001:00014255       __Toupper                  10015255 f   libcpmt:_toupper.obj
 0001:0001434f       __Mtxdst                   1001534f f   libcpmt:xmtx.obj
 0001:0001435d       __Mtxinit                  1001535d f   libcpmt:xmtx.obj
 0001:00014374       __Mtxlock                  10015374 f   libcpmt:xmtx.obj
 0001:00014382       __Mtxunlock                10015382 f   libcpmt:xmtx.obj
 0001:00014390       ??1_Init_atexit@@QAE@XZ    10015390 f i libcpmt:iosptrs.obj
 0001:000143f4       ?_Atexit@@YAXP6AXXZ@Z      100153f4 f   libcpmt:iosptrs.obj
 0001:00014422       ___crtLCMapStringA         10015422 f   libcpmt:StlLCMapStringA.obj
 0001:00014630       __freea_crt                10015630 f i libcpmt:StlLCMapStringA.obj
 0001:000149f8       ___crtInitializeCriticalSectionEx 100159f8 f   libcpmt:winapisupp.obj
 0001:00014a30       _GetTableIndexFromLocaleName 10015a30 f   libcpmt:winapinls.obj
 0001:00014a7e       ___crtDownlevelLocaleNameToLCID 10015a7e f   libcpmt:winapinls.obj
 0001:00014aa8       ___crtLCMapStringEx        10015aa8 f   libcpmt:winapinls.obj
 0001:00014afe       ___wcsnicmp_ascii          10015afe f   libcpmt:winapinls.obj
 0001:00014b71       ___std_exception_copy      10015b71 f   libvcruntime:std_exception.obj
 0001:00014bd4       ___std_exception_destroy   10015bd4 f   libvcruntime:std_exception.obj
 0001:00014c00       _memmove                   10015c00 f   libvcruntime:memmove.obj
 0001:00015174       __get_purecall_handler     10016174 f   libvcruntime:purevirt.obj
 0001:00015193       __purecall                 10016193 f   libvcruntime:purevirt.obj
 0001:000151ae       ___DestructExceptionObject 100161ae f   libvcruntime:frame.obj
 0001:00015242       ??0bad_exception@std@@QAE@ABV01@@Z 10016242 f i libvcruntime:frame.obj
 0001:00015263       ??0bad_exception@std@@QAE@XZ 10016263 f i libvcruntime:frame.obj
 0001:00015a8a       ?_CallMemberFunction1@@YGXQAX00@Z 10016a8a f i libvcruntime:frame.obj
 0001:00015a8a       ?_CallMemberFunction2@@YGXQAX00H@Z 10016a8a f i libvcruntime:frame.obj
 0001:00015a8a       ?_CallMemberFunction0@@YGXQAX0@Z 10016a8a f i libvcruntime:frame.obj
 0001:00015a91       ___AdjustPointer           10016a91 f   libvcruntime:frame.obj
 0001:00015ab6       ___BuildCatchObject        10016ab6 f   libvcruntime:frame.obj
 0001:00015b48       ___BuildCatchObjectHelper  10016b48 f   libvcruntime:frame.obj
 0001:00015c7a       ___FrameUnwindFilter       10016c7a f   libvcruntime:frame.obj
 0001:00015cbf       ___FrameUnwindToState      10016cbf f   libvcruntime:frame.obj
 0001:00015d87       ___InternalCxxFrameHandler 10016d87 f   libvcruntime:frame.obj
 0001:00015e83       ___TypeMatch               10016e83 f   libvcruntime:frame.obj
 0001:00015f11       ___std_terminate           10016f11 f   libvcruntime:frame.obj
 0001:00015f20       _strstr                    10016f20 f   libvcruntime:strstr.obj
 0001:00016183       ??$__crt_fast_encode_pointer@P6GHPAU_RTL_CONDITION_VARIABLE@@PAU_RTL_CRITICAL_SECTION@@K@Z@@YAP6GHPAU_RTL_CONDITION_VARIABLE@@PAU_RTL_CRITICAL_SECTION@@K@ZQ6GH01K@Z@Z 10017183 f i LIBCMT:thread_safe_statics.obj
 0001:00016183       ??$__crt_fast_encode_pointer@P6GXPAU_RTL_CONDITION_VARIABLE@@@Z@@YAP6GXPAU_RTL_CONDITION_VARIABLE@@@ZQ6GX0@Z@Z 10017183 f i LIBCMT:thread_safe_statics.obj
 0001:00016183       ??$__crt_fast_encode_pointer@PAX@@YAPAXQAX@Z 10017183 f i libvcruntime:winapi_downlevel.obj
 0001:00016183       ??$__crt_fast_encode_pointer@PAP6AXXZ@@YAPAP6AXXZQAP6AXXZ@Z 10017183 f i LIBCMT:utility.obj
 0001:000162c1       ___vcrt_EventRegister      100172c1 f   libvcruntime:winapi_downlevel.obj
 0001:00016301       ___vcrt_EventSetInformation 10017301 f   libvcruntime:winapi_downlevel.obj
 0001:00016344       ___vcrt_EventUnregister    10017344 f   libvcruntime:winapi_downlevel.obj
 0001:0001637e       ___vcrt_EventWriteTransfer 1001737e f   libvcruntime:winapi_downlevel.obj
 0001:000163c7       ___vcrt_FlsAlloc           100173c7 f   libvcruntime:winapi_downlevel.obj
 0001:00016401       ___vcrt_FlsFree            10017401 f   libvcruntime:winapi_downlevel.obj
 0001:0001643b       ___vcrt_FlsGetValue        1001743b f   libvcruntime:winapi_downlevel.obj
 0001:00016475       ___vcrt_FlsSetValue        10017475 f   libvcruntime:winapi_downlevel.obj
 0001:000164b2       ___vcrt_InitializeCriticalSectionEx 100174b2 f   libvcruntime:winapi_downlevel.obj
 0001:000164f8       ___vcrt_initialize_winapi_thunks 100174f8 f   libvcruntime:winapi_downlevel.obj
 0001:0001651c       ___vcrt_uninitialize_winapi_thunks 1001751c f   libvcruntime:winapi_downlevel.obj
 0001:00016590       __except_handler4          10017590 f   libvcruntime:_chandler4_.obj
 0001:000166ea       ___vcrt_initialize         100176ea f   libvcruntime:initialization.obj
 0001:00016718       ___vcrt_thread_attach      10017718 f   libvcruntime:initialization.obj
 0001:00016723       ___vcrt_thread_detach      10017723 f   libvcruntime:initialization.obj
 0001:0001672e       ___vcrt_uninitialize       1001772e f   libvcruntime:initialization.obj
 0001:00016752       ___vcrt_uninitialize_critical 10017752 f   libvcruntime:initialization.obj
 0001:00016794       ___telemetry_main_invoke_trigger 10017794 f   libvcruntime:telemetry.obj
 0001:00016830       ___telemetry_main_return_trigger 10017830 f   libvcruntime:telemetry.obj
 0001:000168cc       ___vcrt_initialize_telemetry_provider 100178cc f   libvcruntime:telemetry.obj
 0001:000168df       ___vcrt_uninitialize_telemetry_provider 100178df f   libvcruntime:telemetry.obj
 0001:000168f0       _memset                    100178f0 f   libvcruntime:memset.obj
 0001:00016a4a       __CxxThrowException@8      10017a4a f   libvcruntime:throw.obj
 0001:00016ab8       ___std_type_info_compare   10017ab8 f   libvcruntime:std_type_info.obj
 0001:00016af4       ___std_type_info_destroy_list 10017af4 f   libvcruntime:std_type_info.obj
 0001:00016b20       _memchr                    10017b20 f   libvcruntime:memchr.obj
 0001:00016bcd       ?_CallCatchBlock2@@YAPAXPAUEHRegistrationNode@@PBU_s_FuncInfo@@PAXHK@Z 10017bcd f   libvcruntime:trnsctrl.obj
 0001:00016c2d       ?_CallSETranslator@@YAHPAUEHExceptionRecord@@PAUEHRegistrationNode@@PAX2PBU_s_FuncInfo@@H1@Z 10017c2d f   libvcruntime:trnsctrl.obj
 0001:00016d0a       ?_GetRangeOfTrysToCheck@@YAPBU_s_TryBlockMapEntry@@PBU_s_FuncInfo@@HHPAI1@Z 10017d0a f   libvcruntime:trnsctrl.obj
 0001:00016d82       ?_JumpToContinuation@@YGXPAXPAUEHRegistrationNode@@@Z 10017d82 f   libvcruntime:trnsctrl.obj
 0001:00016db4       ?_UnwindNestedFrames@@YGXPAUEHRegistrationNode@@PAUEHExceptionRecord@@@Z 10017db4 f   libvcruntime:trnsctrl.obj
 0001:00016e09       __CatchGuardHandler        10017e09 f   libvcruntime:trnsctrl.obj
 0001:00016e3a       __CreateFrameInfo          10017e3a f   libvcruntime:trnsctrl.obj
 0001:00016e5e       __FindAndUnlinkFrame       10017e5e f   libvcruntime:trnsctrl.obj
 0001:00016ea6       __IsExceptionObjectToBeDestroyed 10017ea6 f   libvcruntime:trnsctrl.obj
 0001:00016ecc       __TranslatorGuardHandler   10017ecc f   libvcruntime:trnsctrl.obj
 0001:00016f6b       ___CxxFrameHandler3        10017f6b f   libvcruntime:trnsctrl.obj
 0001:00016fb0       _memcpy                    10017fb0 f   libvcruntime:memcpy.obj
 0001:00017524       _memcmp                    10018524 f   libvcruntime:_memcmp_.obj
 0001:00018cb0       __global_unwind2           10019cb0 f   libvcruntime:_exsup_.obj
 0001:00018d15       __local_unwind2            10019d15 f   libvcruntime:_exsup_.obj
 0001:00018d99       __abnormal_termination     10019d99 f   libvcruntime:_exsup_.obj
 0001:00018dbc       __NLG_Notify1              10019dbc f   libvcruntime:_exsup_.obj
 0001:00018dc5       __NLG_Notify               10019dc5 f   libvcruntime:_exsup_.obj
 0001:00018ddc       __NLG_Dispatch             10019ddc     libvcruntime:_exsup_.obj
 0001:00018ddc       __NLG_Dispatch2            10019ddc     libvcruntime:_exsup_.obj
 0001:00018de4       __NLG_Call                 10019de4 f   libvcruntime:_exsup_.obj
 0001:00018de6       __NLG_Return2              10019de6     libvcruntime:_exsup_.obj
 0001:00018df8       __except_handler3          10019df8 f   libvcruntime:_exsup3_.obj
 0001:00018f01       __seh_longjmp_unwind@4     10019f01 f   libvcruntime:_exsup3_.obj
 0001:00018f28       ___vcrt_initialize_pure_virtual_call_handler 10019f28 f   libvcruntime:purevirt_data.obj
 0001:00018f45       _unexpected                10019f45 f   libvcruntime:unexpected.obj
 0001:00018f61       ___vcrt_freefls@4          10019f61 f   libvcruntime:per_thread_data.obj
 0001:00018f7d       ___vcrt_freeptd            10019f7d f   libvcruntime:per_thread_data.obj
 0001:00018fb3       ___vcrt_getptd             10019fb3 f   libvcruntime:per_thread_data.obj
 0001:00018fc1       ___vcrt_getptd_noexit      10019fc1 f   libvcruntime:per_thread_data.obj
 0001:00019039       ___vcrt_initialize_ptd     1001a039 f   libvcruntime:per_thread_data.obj
 0001:0001906c       ___vcrt_uninitialize_ptd   1001a06c f   libvcruntime:per_thread_data.obj
 0001:00019090       __CallSettingFrame@12      1001a090 f   libvcruntime:lowhelpr.obj
 0001:000190b7       __NLG_Return               1001a0b7     libvcruntime:lowhelpr.obj
 0001:000190e0       _strchr                    1001a0e0 f   libvcruntime:strchr.obj
 0001:0001914e       ___from_strstr_to_strchr   1001a14e     libvcruntime:strchr.obj
 0001:00019210       __local_unwind4            1001a210 f   libvcruntime:_exsup4_.obj
 0001:000192e6       __seh_longjmp_unwind4@4    1001a2e6 f   libvcruntime:_exsup4_.obj
 0001:0001930e       @_EH4_CallFilterFunc@8     1001a30e f   libvcruntime:_exsup4_.obj
 0001:00019325       @_EH4_TransferToHandler@8  1001a325 f   libvcruntime:_exsup4_.obj
 0001:0001933e       @_EH4_GlobalUnwind2@8      1001a33e f   libvcruntime:_exsup4_.obj
 0001:00019357       @_EH4_LocalUnwind@16       1001a357 f   libvcruntime:_exsup4_.obj
 0001:0001936e       ___vcrt_initialize_locks   1001a36e f   libvcruntime:locks.obj
 0001:000193aa       ___vcrt_uninitialize_locks 1001a3aa f   libvcruntime:locks.obj
 0001:000193d9       _CallDestructExceptionObject 1001a3d9 f   libvcruntime:_calldtor_.obj
 0001:000194e0       __ValidateEH3RN            1001a4e0 f   libvcruntime:_eh3valid_.obj
 0001:000199c0       ??$count@D@formatting_buffer@__crt_stdio_output@@QBEIXZ 1001a9c0 f i libucrt:output.obj
 0001:000199d8       ??$ensure_buffer_is_big_enough@D@formatting_buffer@__crt_stdio_output@@QAE_NI@Z 1001a9d8 f i libucrt:output.obj
 0001:00019a5e       ??$is_wide_character_specifier@D@__crt_stdio_output@@YA_N_KDW4length_modifier@0@@Z 1001aa5e f i libucrt:output.obj
 0001:00019a9e       ??$scratch_data@D@formatting_buffer@__crt_stdio_output@@QAEPADXZ 1001aa9e f i libucrt:output.obj
 0001:00019abc       ??$type_case_integer_parse_into_buffer@I@?$output_processor@DV?$string_output_adapter@D@__crt_stdio_output@@V?$standard_base@DV?$string_output_adapter@D@__crt_stdio_output@@@2@@__crt_stdio_output@@AAEXII_N@Z 1001aabc f i libucrt:output.obj
 0001:00019b31       ??$type_case_integer_parse_into_buffer@_K@?$output_processor@DV?$string_output_adapter@D@__crt_stdio_output@@V?$standard_base@DV?$string_output_adapter@D@__crt_stdio_output@@@2@@__crt_stdio_output@@AAEX_KI_N@Z 1001ab31 f i libucrt:output.obj
 0001:00019bb9       ??$write_multiple_characters@V?$string_output_adapter@D@__crt_stdio_output@@D@__crt_stdio_output@@YAXABV?$string_output_adapter@D@0@DHQAH@Z 1001abb9 f i libucrt:output.obj
 0001:00019be5       ??0?$common_data@D@__crt_stdio_output@@IAE@XZ 1001abe5 f i libucrt:output.obj
 0001:00019c2c       ??0?$output_adapter_data@DV?$string_output_adapter@D@__crt_stdio_output@@@__crt_stdio_output@@IAE@ABV?$string_output_adapter@D@1@_KQBDQAU__crt_locale_pointers@@QAD@Z 1001ac2c f i libucrt:output.obj
 0001:00019c68       ??0?$output_processor@DV?$string_output_adapter@D@__crt_stdio_output@@V?$standard_base@DV?$string_output_adapter@D@__crt_stdio_output@@@2@@__crt_stdio_output@@QAE@ABV?$string_output_adapter@D@1@_KQBDQAU__crt_locale_pointers@@QAD@Z 1001ac68 f i libucrt:output.obj
 0001:00019c9d       ??0_LocaleUpdate@@QAE@QAU__crt_locale_pointers@@@Z 1001ac9d f i libucrt:output.obj
 0001:00019d20       ??1formatting_buffer@__crt_stdio_output@@QAE@XZ 1001ad20 f i libucrt:output.obj
 0001:00019d3a       ??4?$__crt_unique_heap_ptr@DU__crt_internal_free_policy@@@@QAEAAV0@$$QAV0@@Z 1001ad3a f i libucrt:output.obj
 0001:00019d5e       ?crop_zeroes@__crt_stdio_output@@YAXPADQAU__crt_locale_pointers@@@Z 1001ad5e f i libucrt:output.obj
 0001:00019db5       ?find_next_state@?$output_processor@DV?$string_output_adapter@D@__crt_stdio_output@@V?$standard_base@DV?$string_output_adapter@D@__crt_stdio_output@@@2@@__crt_stdio_output@@ABE?AW4state@2@DW432@@Z 1001adb5 f i libucrt:output.obj
 0001:00019de7       ?force_decimal_point@__crt_stdio_output@@YAXPADQAU__crt_locale_pointers@@@Z 1001ade7 f i libucrt:output.obj
 0001:00019e43       ?parse_int_from_format_string@?$output_processor@DV?$string_output_adapter@D@__crt_stdio_output@@V?$standard_base@DV?$string_output_adapter@D@__crt_stdio_output@@@2@@__crt_stdio_output@@AAE_NQAH@Z 1001ae43 f i libucrt:output.obj
 0001:00019e9f       ?process@?$output_processor@DV?$string_output_adapter@D@__crt_stdio_output@@V?$standard_base@DV?$string_output_adapter@D@__crt_stdio_output@@@2@@__crt_stdio_output@@QAEHXZ 1001ae9f f i libucrt:output.obj
 0001:00019fbb       ?state_case_flag@?$output_processor@DV?$string_output_adapter@D@__crt_stdio_output@@V?$standard_base@DV?$string_output_adapter@D@__crt_stdio_output@@@2@@__crt_stdio_output@@AAE_NXZ 1001afbb f i libucrt:output.obj
 0001:00019ff8       ?state_case_normal@?$output_processor@DV?$string_output_adapter@D@__crt_stdio_output@@V?$standard_base@DV?$string_output_adapter@D@__crt_stdio_output@@@2@@__crt_stdio_output@@AAE_NXZ 1001aff8 f i libucrt:output.obj
 0001:0001a017       ?state_case_normal_common@?$output_processor@DV?$string_output_adapter@D@__crt_stdio_output@@V?$standard_base@DV?$string_output_adapter@D@__crt_stdio_output@@@2@@__crt_stdio_output@@AAE_NXZ 1001b017 f i libucrt:output.obj
 0001:0001a041       ?state_case_normal_tchar@?$output_processor@DV?$string_output_adapter@D@__crt_stdio_output@@V?$standard_base@DV?$string_output_adapter@D@__crt_stdio_output@@@2@@__crt_stdio_output@@AAE_ND@Z 1001b041 f i libucrt:output.obj
 0001:0001a0a2       ?state_case_precision@?$output_processor@DV?$string_output_adapter@D@__crt_stdio_output@@V?$standard_base@DV?$string_output_adapter@D@__crt_stdio_output@@@2@@__crt_stdio_output@@AAE_NXZ 1001b0a2 f i libucrt:output.obj
 0001:0001a0ca       ?state_case_size@?$output_processor@DV?$string_output_adapter@D@__crt_stdio_output@@V?$standard_base@DV?$string_output_adapter@D@__crt_stdio_output@@@2@@__crt_stdio_output@@AAE_NXZ 1001b0ca f i libucrt:output.obj
 0001:0001a233       ?state_case_type@?$output_processor@DV?$string_output_adapter@D@__crt_stdio_output@@V?$standard_base@DV?$string_output_adapter@D@__crt_stdio_output@@@2@@__crt_stdio_output@@AAE_NXZ 1001b233 f i libucrt:output.obj
 0001:0001a462       ?state_case_width@?$output_processor@DV?$string_output_adapter@D@__crt_stdio_output@@V?$standard_base@DV?$string_output_adapter@D@__crt_stdio_output@@@2@@__crt_stdio_output@@AAE_NXZ 1001b462 f i libucrt:output.obj
 0001:0001a48d       ?to_integer_size@__crt_stdio_output@@YAIW4length_modifier@1@@Z 1001b48d f i libucrt:output.obj
 0001:0001a4e9       ?type_case_Z@?$output_processor@DV?$string_output_adapter@D@__crt_stdio_output@@V?$standard_base@DV?$string_output_adapter@D@__crt_stdio_output@@@2@@__crt_stdio_output@@AAE_NXZ 1001b4e9 f i libucrt:output.obj
 0001:0001a54c       ?type_case_a@?$output_processor@DV?$string_output_adapter@D@__crt_stdio_output@@V?$standard_base@DV?$string_output_adapter@D@__crt_stdio_output@@@2@@__crt_stdio_output@@AAE_NXZ 1001b54c f i libucrt:output.obj
 0001:0001a6a6       ?type_case_c_tchar@?$output_processor@DV?$string_output_adapter@D@__crt_stdio_output@@V?$standard_base@DV?$string_output_adapter@D@__crt_stdio_output@@@2@@__crt_stdio_output@@AAE_ND@Z 1001b6a6 f i libucrt:output.obj
 0001:0001a736       ?type_case_integer@?$output_processor@DV?$string_output_adapter@D@__crt_stdio_output@@V?$standard_base@DV?$string_output_adapter@D@__crt_stdio_output@@@2@@__crt_stdio_output@@AAE_NI_N@Z 1001b736 f i libucrt:output.obj
 0001:0001a880       ?type_case_n@?$output_processor@DV?$string_output_adapter@D@__crt_stdio_output@@V?$standard_base@DV?$string_output_adapter@D@__crt_stdio_output@@@2@@__crt_stdio_output@@AAE_NXZ 1001b880 f i libucrt:output.obj
 0001:0001a8f4       ?type_case_o@?$output_processor@DV?$string_output_adapter@D@__crt_stdio_output@@V?$standard_base@DV?$string_output_adapter@D@__crt_stdio_output@@@2@@__crt_stdio_output@@AAE_NXZ 1001b8f4 f i libucrt:output.obj
 0001:0001a913       ?type_case_p@?$output_processor@DV?$string_output_adapter@D@__crt_stdio_output@@V?$standard_base@DV?$string_output_adapter@D@__crt_stdio_output@@@2@@__crt_stdio_output@@AAE_NXZ 1001b913 f i libucrt:output.obj
 0001:0001a92b       ?type_case_s@?$output_processor@DV?$string_output_adapter@D@__crt_stdio_output@@V?$standard_base@DV?$string_output_adapter@D@__crt_stdio_output@@@2@@__crt_stdio_output@@AAE_NXZ 1001b92b f i libucrt:output.obj
 0001:0001a99e       ?validate@?$c_string_character_source@D@__crt_strtox@@QBE_NXZ 1001b99e f i libucrt:atof.obj
 0001:0001a99e       ?validate@?$c_string_character_source@_W@__crt_strtox@@QBE_NXZ 1001b99e f i libucrt:atof.obj
 0001:0001a99e       ?validate@?$string_output_adapter@D@__crt_stdio_output@@QBE_NXZ 1001b99e f i libucrt:output.obj
 0001:0001a9b9       ?write_character@?$string_output_adapter@D@__crt_stdio_output@@QBE_NDQAH@Z 1001b9b9 f i libucrt:output.obj
 0001:0001a9fb       ?write_stored_string_tchar@?$output_processor@DV?$string_output_adapter@D@__crt_stdio_output@@V?$standard_base@DV?$string_output_adapter@D@__crt_stdio_output@@@2@@__crt_stdio_output@@AAE_ND@Z 1001b9fb f i libucrt:output.obj
 0001:0001aaa2       ?write_string@?$string_output_adapter@D@__crt_stdio_output@@QBEXQBDHQAH1@Z 1001baa2 f i libucrt:output.obj
 0001:0001ab35       ___stdio_common_vsprintf   1001bb35 f   libucrt:output.obj
 0001:0001ab60       _strncpy                   1001bb60 f   libucrt:strncpy.obj
 0001:0001ac84       _free                      1001bc84 f   libucrt:free.obj
 0001:0001ac89       ??$assemble_floating_point_ind@N@__crt_strtox@@YAXAAN@Z 1001bc89 f i libucrt:atof.obj
 0001:0001acb8       ??$assemble_floating_point_infinity@N@__crt_strtox@@YAX_NAAN@Z 1001bcb8 f i libucrt:atof.obj
 0001:0001acf7       ??$assemble_floating_point_qnan@N@__crt_strtox@@YAX_NAAN@Z 1001bcf7 f i libucrt:atof.obj
 0001:0001ad36       ??$assemble_floating_point_snan@N@__crt_strtox@@YAX_NAAN@Z 1001bd36 f i libucrt:atof.obj
 0001:0001ad7a       ??$assemble_floating_point_value_t@M@__crt_strtox@@YA?AW4SLD_STATUS@@_NH_KAAM@Z 1001bd7a f i libucrt:atof.obj
 0001:0001adaa       ??$assemble_floating_point_value_t@N@__crt_strtox@@YA?AW4SLD_STATUS@@_NH_KAAN@Z 1001bdaa f i libucrt:atof.obj
 0001:0001ae09       ??$assemble_floating_point_zero@N@__crt_strtox@@YAX_NAAN@Z 1001be09 f i libucrt:atof.obj
 0001:0001aeb3       ??$convert_decimal_string_to_floating_type@N@__crt_strtox@@YA?AW4SLD_STATUS@@ABUfloating_point_string@0@AAN@Z 1001beb3 f i libucrt:atof.obj
 0001:0001aed6       ??$convert_hexadecimal_string_to_floating_type@N@__crt_strtox@@YA?AW4SLD_STATUS@@ABUfloating_point_string@0@AAN@Z 1001bed6 f i libucrt:atof.obj
 0001:0001aef9       ??$make_c_string_character_source@D$$T@__crt_strtox@@YA?AV?$c_string_character_source@D@0@QBD$$T@Z 1001bef9 f i libucrt:atof.obj
 0001:0001aef9       ??$make_c_string_character_source@_W$$T@__crt_strtox@@YA?AV?$c_string_character_source@_W@0@QB_W$$T@Z 1001bef9 f i libucrt:atof.obj
 0001:0001aef9       ??$make_c_string_character_source@DPAPAD@__crt_strtox@@YA?AV?$c_string_character_source@D@0@QBDQAPAD@Z 1001bef9 f i libucrt:strtox.obj
 0001:0001af14       ??$parse_floating_point@V?$c_string_character_source@D@__crt_strtox@@N@__crt_strtox@@YA?AW4SLD_STATUS@@QAU__crt_locale_pointers@@V?$c_string_character_source@D@0@QAN@Z 1001bf14 f i libucrt:atof.obj
 0001:0001af8a       ??$parse_floating_point_from_source@V?$c_string_character_source@D@__crt_strtox@@@__crt_strtox@@YA?AW4floating_point_parse_result@0@QAU__crt_locale_pointers@@AAV?$c_string_character_source@D@0@AAUfloating_point_string@0@@Z 1001bf8a f i libucrt:atof.obj
 0001:0001b37c       ??$parse_floating_point_possible_infinity@DV?$c_string_character_source@D@__crt_strtox@@PBD@__crt_strtox@@YA?AW4floating_point_parse_result@0@AADAAV?$c_string_character_source@D@0@PBD@Z 1001c37c f i libucrt:atof.obj
 0001:0001b429       ??$parse_floating_point_possible_nan@DV?$c_string_character_source@D@__crt_strtox@@PBD@__crt_strtox@@YA?AW4floating_point_parse_result@0@AADAAV?$c_string_character_source@D@0@PBD@Z 1001c429 f i libucrt:atof.obj
 0001:0001b544       ??$parse_floating_point_possible_nan_is_ind@DV?$c_string_character_source@D@__crt_strtox@@@__crt_strtox@@YA_NAADAAV?$c_string_character_source@D@0@@Z 1001c544 f i libucrt:atof.obj
 0001:0001b580       ??$parse_floating_point_possible_nan_is_snan@DV?$c_string_character_source@D@__crt_strtox@@@__crt_strtox@@YA_NAADAAV?$c_string_character_source@D@0@@Z 1001c580 f i libucrt:atof.obj
 0001:0001b5bc       ??$parse_floating_point_write_result@N@__crt_strtox@@YA?AW4SLD_STATUS@@W4floating_point_parse_result@0@ABUfloating_point_string@0@QAN@Z 1001c5bc f i libucrt:atof.obj
 0001:0001b6e6       ?as_double@floating_point_value@__crt_strtox@@QBEAANXZ 1001c6e6 f i libucrt:atof.obj
 0001:0001b70b       ?as_float@floating_point_value@__crt_strtox@@QBEAAMXZ 1001c70b f i libucrt:atof.obj
 0001:0001b730       ?assemble_floating_point_infinity@__crt_strtox@@YAX_NABVfloating_point_value@1@@Z 1001c730 f i libucrt:atof.obj
 0001:0001b76a       ?assemble_floating_point_value@__crt_strtox@@YA?AW4SLD_STATUS@@_KH_N1ABVfloating_point_value@1@@Z 1001c76a f i libucrt:atof.obj
 0001:0001bab6       ?assemble_floating_point_value_from_big_integer@__crt_strtox@@YA?AW4SLD_STATUS@@ABUbig_integer@1@I_N1ABVfloating_point_value@1@@Z 1001cab6 f i libucrt:atof.obj
 0001:0001bc44       ?assemble_floating_point_zero@__crt_strtox@@YAX_NABVfloating_point_value@1@@Z 1001cc44 f i libucrt:atof.obj
 0001:0001bc78       ?convert_decimal_string_to_floating_type_common@__crt_strtox@@YA?AW4SLD_STATUS@@ABUfloating_point_string@1@ABVfloating_point_value@1@@Z 1001cc78 f i libucrt:atof.obj
 0001:0001da3b       ?convert_hexadecimal_string_to_floating_type_common@__crt_strtox@@YA?AW4SLD_STATUS@@ABUfloating_point_string@1@ABVfloating_point_value@1@@Z 1001ea3b f i libucrt:atof.obj
 0001:0001dae7       ?denormal_mantissa_mask@floating_point_value@__crt_strtox@@QBE_KXZ 1001eae7 f i libucrt:atof.obj
 0001:0001db00       ?divide@__crt_strtox@@YA_KAAUbig_integer@1@ABU21@@Z 1001eb00 f i libucrt:atof.obj
 0001:0001dfae       ?normal_mantissa_mask@floating_point_value@__crt_strtox@@QBE_KXZ 1001efae f i libucrt:atof.obj
 0001:0001dfc5       ?unget@?$c_string_character_source@D@__crt_strtox@@QAEXD@Z 1001efc5 f i libucrt:atof.obj
 0001:0001dfed       ?unget@?$c_string_character_source@_W@__crt_strtox@@QAEX_W@Z 1001efed f i libucrt:atof.obj
 0001:0001e019       __chvalidchk_l             1001f019 f i libucrt:atof.obj
 0001:0001e043       __ischartype_l             1001f043 f i libucrt:atof.obj
 0001:0001e076       _atof                      1001f076 f   libucrt:atof.obj
 0001:0001e089       ___acrt_call_reportfault   1001f089 f   libucrt:invalid_parameter.obj
 0001:0001e1c4       ___acrt_initialize_invalid_parameter_handler 1001f1c4 f   libucrt:invalid_parameter.obj
 0001:0001e1d8       __invalid_parameter        1001f1d8 f   libucrt:invalid_parameter.obj
 0001:0001e253       __invalid_parameter_noinfo 1001f253 f   libucrt:invalid_parameter.obj
 0001:0001e263       __invalid_parameter_noinfo_noreturn 1001f263 f   libucrt:invalid_parameter.obj
 0001:0001e280       __invoke_watson            1001f280 f   libucrt:invalid_parameter.obj
 0001:0001e2b3       _malloc                    1001f2b3 f   libucrt:malloc.obj
 0001:0001e2be       __fputc_nolock             1001f2be f   libucrt:fputc.obj
 0001:0001e2e7       _fputc                     1001f2e7 f   libucrt:fputc.obj
 0001:0001e3eb       ___acrt_stdio_flush_nolock 1001f3eb f   libucrt:fflush.obj
 0001:0001e451       __fflush_nolock            1001f451 f   libucrt:fflush.obj
 0001:0001e498       __flushall                 1001f498 f   libucrt:fflush.obj
 0001:0001e579       _fflush                    1001f579 f   libucrt:fflush.obj
 0001:0001e5d2       __fclose_nolock            1001f5d2 f   libucrt:fclose.obj
 0001:0001e648       _fclose                    1001f648 f   libucrt:fclose.obj
 0001:0001e6c8       __fgetc_nolock             1001f6c8 f   libucrt:fgetc.obj
 0001:0001e704       _fgetc                     1001f704 f   libucrt:fgetc.obj
 0001:0001e806       ___acrt_initialize_stdio   1001f806 f   libucrt:_file.obj
 0001:0001e8ce       ___acrt_iob_func           1001f8ce f   libucrt:_file.obj
 0001:0001e8de       ___acrt_uninitialize_stdio 1001f8de f   libucrt:_file.obj
 0001:0001e92a       __get_stream_buffer_pointers 1001f92a f   libucrt:_file.obj
 0001:0001e970       __lock_file                1001f970 f   libucrt:_file.obj
 0001:0001e984       __unlock_file              1001f984 f   libucrt:_file.obj
 0001:0001e998       ??$?RV<lambda_11b4f7b0d3157825a5656a18eba1ae27>@@AAV<lambda_b51c0495177f500e782686251704ae76>@@V<lambda_cf89b47920b5017557bfe891e78aca36>@@@?$__crt_seh_guarded_call@I@@QAEI$$QAV<lambda_11b4f7b0d3157825a5656a18eba1ae27>@@AAV<lambda_b51c0495177f500e782686251704ae76>@@$$QAV<lambda_cf89b47920b5017557bfe891e78aca36>@@@Z 1001f998 f i libucrt:fwrite.obj
 0001:0001e9e9       ??$__acrt_lock_stream_and_call@V<lambda_b51c0495177f500e782686251704ae76>@@@@YAIQAU_iobuf@@$$QAV<lambda_b51c0495177f500e782686251704ae76>@@@Z 1001f9e9 f i libucrt:fwrite.obj
 0001:0001ea57       __fwrite_nolock            1001fa57 f   libucrt:fwrite.obj
 0001:0001ebd0       _fwrite                    1001fbd0 f   libucrt:fwrite.obj
 0001:0001ec28       ___acrt_errno_from_os_error 1001fc28 f   libucrt:errno.obj
 0001:0001ec6b       ___acrt_errno_map_os_error 1001fc6b f   libucrt:errno.obj
 0001:0001ec8e       ___doserrno                1001fc8e f   libucrt:errno.obj
 0001:0001eca1       __errno                    1001fca1 f   libucrt:errno.obj
 0001:0001ecb4       _fgetpos                   1001fcb4 f   libucrt:fgetpos.obj
 0001:0001ed0f       ??$?RV<lambda_d92cfe8357b99225085016881b624cb0>@@AAV<lambda_b721fa326cdb32351d23dfa67958c160>@@V<lambda_42d75b0848218ec137fa420c8ba9fdf9>@@@?$__crt_seh_guarded_call@H@@QAEH$$QAV<lambda_d92cfe8357b99225085016881b624cb0>@@AAV<lambda_b721fa326cdb32351d23dfa67958c160>@@$$QAV<lambda_42d75b0848218ec137fa420c8ba9fdf9>@@@Z 1001fd0f f i libucrt:setvbuf.obj
 0001:0001ed60       ??$__acrt_lock_stream_and_call@V<lambda_b721fa326cdb32351d23dfa67958c160>@@@@YAHQAU_iobuf@@$$QAV<lambda_b721fa326cdb32351d23dfa67958c160>@@@Z 1001fd60 f i libucrt:setvbuf.obj
 0001:0001ee55       _setvbuf                   1001fe55 f   libucrt:setvbuf.obj
 0001:0001eecb       __ungetc_nolock            1001fecb f   libucrt:ungetc.obj
 0001:0001efba       _ungetc                    1001ffba f   libucrt:ungetc.obj
 0001:0001f02a       _fsetpos                   1002002a f   libucrt:fsetpos.obj
 0001:0001f065       ?LongLongSub@@YAJ_J0PA_J@Z 10020065 f i libucrt:fseek.obj
 0001:0001f31f       __fseeki64                 1002031f f   libucrt:fseek.obj
 0001:0001f4b6       __strlwr                   100204b6 f   libucrt:strlwr.obj
 0001:0001f513       __strlwr_s_l               10020513 f   libucrt:strlwr.obj
 0001:0001f54c       _strcpy_s                  1002054c f   libucrt:strcpy_s.obj
 0001:0001f5a6       _strcat_s                  100205a6 f   libucrt:strcat_s.obj
 0001:0001f60f       ?initialize@?$dual_state_global@P6AHI@Z@__crt_state_management@@QAEXQ6AHI@Z@Z 1002060f f i libucrt:new_handler.obj
 0001:0001f60f       ?initialize@?$dual_state_global@P6AXH@Z@__crt_state_management@@QAEXQ6AXH@Z@Z 1002060f f i libucrt:signal.obj
 0001:0001f60f       ?initialize@?$dual_state_global@PAPAD@__crt_state_management@@QAEXQAPAD@Z 1002060f f i libucrt:environment_initialization.obj
 0001:0001f60f       ?initialize@?$dual_state_global@P6AHPAU_exception@@@Z@__crt_state_management@@QAEXQ6AHPAU_exception@@@Z@Z 1002060f f i libucrt:matherr.obj
 0001:0001f60f       ?initialize@?$dual_state_global@PAU__crt_locale_data@@@__crt_state_management@@QAEXQAU__crt_locale_data@@@Z 1002060f f i libucrt:initialization.obj
 0001:0001f60f       ?initialize@?$dual_state_global@P6AXPB_W00II@Z@__crt_state_management@@QAEXQ6AXPB_W00II@Z@Z 1002060f f i libucrt:invalid_parameter.obj
 0001:0001f60f       ?initialize@?$dual_state_global@H@__crt_state_management@@QAEXH@Z 1002060f f i libucrt:timeset.obj
 0001:0001f60f       ?initialize@?$dual_state_global@J@__crt_state_management@@QAEXJ@Z 1002060f f i libucrt:timeset.obj
 0001:0001f640       ___acrt_initialize_new_handler 10020640 f   libucrt:new_handler.obj
 0001:0001f654       __callnewh                 10020654 f   libucrt:new_handler.obj
 0001:0001f698       __query_new_handler        10020698 f   libucrt:new_handler.obj
 0001:0001f6ea       _terminate                 100206ea f   libucrt:terminate.obj
 0001:0001f726       __seh_filter_dll           10020726 f   libucrt:exception_filter.obj
 0001:0001f746       __seh_filter_exe           10020746 f   libucrt:exception_filter.obj
 0001:0001fad4       ___acrt_initialize_thread_local_exit_callback 10020ad4 f   libucrt:exit.obj
 0001:0001fae3       __cexit                    10020ae3 f   libucrt:exit.obj
 0001:0001faf2       __exit                     10020af2 f   libucrt:exit.obj
 0001:0001fb08       __is_c_termination_complete 10020b08 f   libucrt:exit.obj
 0001:0001fc67       ??$uninitialize@A6AXAAPAPA_W@Z@?$dual_state_global@PAPA_W@__crt_state_management@@QAEXA6AXAAPAPA_W@Z@Z 10020c67 f i libucrt:environment_initialization.obj
 0001:0001fc67       ??$uninitialize@A6AXAAPAPAD@Z@?$dual_state_global@PAPAD@__crt_state_management@@QAEXA6AXAAPAPAD@Z@Z 10020c67 f i libucrt:environment_initialization.obj
 0001:0001fcdd       ___dcrt_uninitialize_environments_nolock 10020cdd f   libucrt:environment_initialization.obj
 0001:0001fd14       __initialize_narrow_environment 10020d14 f   libucrt:environment_initialization.obj
 0001:0001fd19       ??$?RV<lambda_800076c951b434888f4765a74a194fcc>@@AAV<lambda_4e60a939b0d047cfe11ddc22648dfba9>@@V<lambda_6dbb1268764f43b569ce7b67e331d33a>@@@?$__crt_seh_guarded_call@H@@QAEH$$QAV<lambda_800076c951b434888f4765a74a194fcc>@@AAV<lambda_4e60a939b0d047cfe11ddc22648dfba9>@@$$QAV<lambda_6dbb1268764f43b569ce7b67e331d33a>@@@Z 10020d19 f i libucrt:onexit.obj
 0001:0001fd6a       ??$?RV<lambda_995298e7d72eb4c2aab26c0585b3abe5>@@AAV<lambda_275893d493268fdec8709772e3fcec0e>@@V<lambda_293819299cbf9a7022e18b56a874bb5c>@@@?$__crt_seh_guarded_call@H@@QAEH$$QAV<lambda_995298e7d72eb4c2aab26c0585b3abe5>@@AAV<lambda_275893d493268fdec8709772e3fcec0e>@@$$QAV<lambda_293819299cbf9a7022e18b56a874bb5c>@@@Z 10020d6a f i libucrt:onexit.obj
 0001:0001fdbb       ??$__acrt_lock_and_call@V<lambda_275893d493268fdec8709772e3fcec0e>@@@@YAHW4__acrt_lock_id@@$$QAV<lambda_275893d493268fdec8709772e3fcec0e>@@@Z 10020dbb f i libucrt:onexit.obj
 0001:0001fde3       ??$__acrt_lock_and_call@V<lambda_4e60a939b0d047cfe11ddc22648dfba9>@@@@YAHW4__acrt_lock_id@@$$QAV<lambda_4e60a939b0d047cfe11ddc22648dfba9>@@@Z 10020de3 f i libucrt:onexit.obj
 0001:0001fe0b       ??$__crt_fast_encode_pointer@P6GHPA_WKJ@Z@@YAP6GHPA_WKJ@ZQ6GH0KJ@Z@Z 10020e0b f i libucrt:winapi_thunks.obj
 0001:0001fe0b       ??$__crt_fast_encode_pointer@P6AHXZ@@YAP6AHXZQ6AHXZ@Z 10020e0b f i libucrt:onexit.obj
 0001:0002008c       __crt_atexit               1002108c f   libucrt:onexit.obj
 0001:000200a2       __execute_onexit_table     100210a2 f   libucrt:onexit.obj
 0001:000200bf       __initialize_onexit_table  100210bf f   libucrt:onexit.obj
 0001:000200fc       __register_onexit_function 100210fc f   libucrt:onexit.obj
 0001:00020211       ___acrt_initialize         10021211 f   libucrt:initialization.obj
 0001:00020223       ___acrt_thread_attach      10021223 f   libucrt:initialization.obj
 0001:0002022e       ___acrt_thread_detach      1002122e f   libucrt:initialization.obj
 0001:00020236       ___acrt_uninitialize       10021236 f   libucrt:initialization.obj
 0001:00020248       ___acrt_uninitialize_critical 10021248 f   libucrt:initialization.obj
 0001:0002025a       __initterm                 1002125a f   libucrt:initterm.obj
 0001:000202b6       __initterm_e               100212b6 f   libucrt:initterm.obj
 0001:000202fb       __isdigit_l                100212fb f i libucrt:_ctype.obj
 0001:00020333       __islower_l                10021333 f i libucrt:_ctype.obj
 0001:0002036b       __isupper_l                1002136b f i libucrt:_ctype.obj
 0001:000203a3       _isdigit                   100213a3 f i libucrt:_ctype.obj
 0001:000203d0       _islower                   100213d0 f i libucrt:_ctype.obj
 0001:000203fd       _isupper                   100213fd f i libucrt:_ctype.obj
 0001:00020591       __tolower_l                10021591 f   libucrt:tolower_toupper.obj
 0001:000205ab       _tolower                   100215ab f   libucrt:tolower_toupper.obj
 0001:000205db       ___acrt_initialize_locks   100215db f   libucrt:locks.obj
 0001:0002061c       ___acrt_lock               1002161c f   libucrt:locks.obj
 0001:00020633       ___acrt_uninitialize_locks 10021633 f   libucrt:locks.obj
 0001:00020664       ___acrt_unlock             10021664 f   libucrt:locks.obj
 0001:0002067b       __lock_locales             1002167b f   libucrt:locks.obj
 0001:00020684       __unlock_locales           10021684 f   libucrt:locks.obj
 0001:0002072a       _setlocale                 1002172a f   libucrt:setlocale.obj
 0001:00020887       __calloc_base              10021887 f   libucrt:calloc_base.obj
 0001:000208e4       ___pctype_func             100218e4 f   libucrt:ctype.obj
 0001:0002090a       __wcsdup                   1002190a f   libucrt:wcsdup.obj
 0001:0002096b       ____lc_codepage_func       1002196b f   libucrt:initctype.obj
 0001:00020992       ____lc_locale_name_func    10021992 f   libucrt:initctype.obj
 0001:000209bb       ___acrt_locale_initialize_ctype 100219bb f   libucrt:initctype.obj
 0001:00020d60       __CIsqrt                   10021d60 f   libucrt:sqrt.obj
 0001:00020d74       _sqrt                      10021d74     libucrt:sqrt.obj
 0001:00020e1a       _abort                     10021e1a f   libucrt:abort.obj
 0001:00020e5d       __malloc_base              10021e5d f   libucrt:malloc_base.obj
 0001:00020eab       __realloc_base             10021eab f   libucrt:realloc_base.obj
 0001:00020f20       _strcspn                   10021f20 f   libucrt:strcspn.obj
 0001:00020f66       ___strncnt                 10021f66 f   libucrt:strncnt.obj
 0001:00020f82       __free_base                10021f82 f   libucrt:free_base.obj
 0001:00020fbc       _wcscpy_s                  10021fbc f   libucrt:wcscpy_s.obj
 0001:00021020       _strnlen                   10022020 f   libucrt:strnlen.obj
 0001:00021147       _wcsnlen                   10022147 f   libucrt:strnlen.obj
 0001:00021300       _strcpy                    10022300 f   libucrt:strcat.obj
 0001:00021310       _strcat                    10022310 f   libucrt:strcat.obj
 0001:00021400       _strcmp                    10022400 f   libucrt:strcmp.obj
 0001:0002148c       ??$is_overflow_condition@K@__crt_strtox@@YA_NIK@Z 1002248c f i libucrt:atox.obj
 0001:000214bf       ??$parse_integer@KV?$c_string_character_source@D@__crt_strtox@@@__crt_strtox@@YAKQAU__crt_locale_pointers@@V?$c_string_character_source@D@0@H_N@Z 100224bf f i libucrt:atox.obj
 0001:000216e7       ??$parse_integer@KV?$c_string_character_source@_W@__crt_strtox@@@__crt_strtox@@YAKQAU__crt_locale_pointers@@V?$c_string_character_source@_W@0@H_N@Z 100226e7 f i libucrt:atox.obj
 0001:00021dcc       __wtol                     10022dcc f   libucrt:atox.obj
 0001:00021df6       _strtol                    10022df6 f   libucrt:strtox.obj
 0001:00021e22       __mbtowc_l                 10022e22 f   libucrt:mbtowc.obj
 0001:00021f1c       _mbtowc                    10022f1c f   libucrt:mbtowc.obj
 0001:00021f36       __wctomb_s_l               10022f36 f   libucrt:wctomb.obj
 0001:00022057       _wctomb_s                  10023057 f   libucrt:wctomb.obj
 0001:00022074       ??$?RV<lambda_3518db117f0e7cdb002338c5d3c47b6c>@@AAV<lambda_b2ea41f6bbb362cd97d94c6828d90b61>@@V<lambda_abdedf541bb04549bc734292b4a045d4>@@@?$__crt_seh_guarded_call@X@@QAEX$$QAV<lambda_3518db117f0e7cdb002338c5d3c47b6c>@@AAV<lambda_b2ea41f6bbb362cd97d94c6828d90b61>@@$$QAV<lambda_abdedf541bb04549bc734292b4a045d4>@@@Z 10023074 f i libucrt:per_thread_data.obj
 0001:000220c4       ??$?RV<lambda_51b6e8b1eb166f2a3faf91f424b38130>@@AAV<lambda_6250bd4b2a391816dd638c3bf72b0bcb>@@V<lambda_0b5a4a3e68152e1d9b943535f5f47bed>@@@?$__crt_seh_guarded_call@X@@QAEX$$QAV<lambda_51b6e8b1eb166f2a3faf91f424b38130>@@AAV<lambda_6250bd4b2a391816dd638c3bf72b0bcb>@@$$QAV<lambda_0b5a4a3e68152e1d9b943535f5f47bed>@@@Z 100230c4 f i libucrt:per_thread_data.obj
 0001:00022125       ??$?RV<lambda_5b71d36f03204c0beab531769a5b5694>@@AAV<lambda_be2b3da3f62db62e9dad5dc70221a656>@@V<lambda_8f9ce462984622f9bf76b59e2aaaf805>@@@?$__crt_seh_guarded_call@X@@QAEX$$QAV<lambda_5b71d36f03204c0beab531769a5b5694>@@AAV<lambda_be2b3da3f62db62e9dad5dc70221a656>@@$$QAV<lambda_8f9ce462984622f9bf76b59e2aaaf805>@@@Z 10023125 f i libucrt:per_thread_data.obj
 0001:00022170       ??$?RV<lambda_9df27f884b057bc3edfc946cb5b7cf47>@@AAV<lambda_e69574bed617af4e071282c136b37893>@@V<lambda_cc0d902bcbbeb830f749456577db4721>@@@?$__crt_seh_guarded_call@X@@QAEX$$QAV<lambda_9df27f884b057bc3edfc946cb5b7cf47>@@AAV<lambda_e69574bed617af4e071282c136b37893>@@$$QAV<lambda_cc0d902bcbbeb830f749456577db4721>@@@Z 10023170 f i libucrt:per_thread_data.obj
 0001:000221b8       ??$__acrt_lock_and_call@V<lambda_6250bd4b2a391816dd638c3bf72b0bcb>@@@@YAXW4__acrt_lock_id@@$$QAV<lambda_6250bd4b2a391816dd638c3bf72b0bcb>@@@Z 100231b8 f i libucrt:per_thread_data.obj
 0001:000221e0       ??$__acrt_lock_and_call@V<lambda_b2ea41f6bbb362cd97d94c6828d90b61>@@@@YAXW4__acrt_lock_id@@$$QAV<lambda_b2ea41f6bbb362cd97d94c6828d90b61>@@@Z 100231e0 f i libucrt:per_thread_data.obj
 0001:00022208       ??$__acrt_lock_and_call@V<lambda_be2b3da3f62db62e9dad5dc70221a656>@@@@YAXW4__acrt_lock_id@@$$QAV<lambda_be2b3da3f62db62e9dad5dc70221a656>@@@Z 10023208 f i libucrt:per_thread_data.obj
 0001:00022230       ??$__acrt_lock_and_call@V<lambda_e69574bed617af4e071282c136b37893>@@@@YAXW4__acrt_lock_id@@$$QAV<lambda_e69574bed617af4e071282c136b37893>@@@Z 10023230 f i libucrt:per_thread_data.obj
 0001:000223e6       ___acrt_freeptd            100233e6 f   libucrt:per_thread_data.obj
 0001:00022412       ___acrt_getptd             10023412 f   libucrt:per_thread_data.obj
 0001:00022496       ___acrt_getptd_noexit      10023496 f   libucrt:per_thread_data.obj
 0001:0002251b       ___acrt_initialize_ptd     1002351b f   libucrt:per_thread_data.obj
 0001:00022547       ___acrt_uninitialize_ptd   10023547 f   libucrt:per_thread_data.obj
 0001:00022561       ___acrt_update_locale_info 10023561 f   libucrt:locale_update.obj
 0001:0002258e       ___acrt_update_multibyte_info 1002358e f   libucrt:locale_update.obj
 0001:000225bb       ?__acrt_fp_classify@@YA?AW4__acrt_fp_class@@ABN@Z 100235bb f i libucrt:cvt.obj
 0001:00022627       ?__acrt_fp_is_negative@@YA_NABN@Z 10023627 f i libucrt:cvt.obj
 0001:00022e86       ___acrt_fp_format          10023e86 f   libucrt:cvt.obj
 0001:00022fd0       __fileno                   10023fd0 f   libucrt:fileno.obj
 0001:00022ff6       __get_printf_count_output  10023ff6 f   libucrt:printf_count_output.obj
 0001:0002300b       ___acrt_stdio_begin_temporary_buffering_nolock 1002400b f   libucrt:_sftbuf.obj
 0001:000230c0       ___acrt_stdio_end_temporary_buffering_nolock 100240c0 f   libucrt:_sftbuf.obj
 0001:000230f9       ??$?RV<lambda_70818de7b02deff9841e8b0962a60ed9>@@AAV<lambda_2af78c5f5901b1372d98f9ab3177dfa6>@@AAV<lambda_f51fe5fd7c79a33db34fc9310f277369>@@@?$__crt_seh_guarded_call@X@@QAEX$$QAV<lambda_70818de7b02deff9841e8b0962a60ed9>@@AAV<lambda_2af78c5f5901b1372d98f9ab3177dfa6>@@AAV<lambda_f51fe5fd7c79a33db34fc9310f277369>@@@Z 100240f9 f i libucrt:wsetlocale.obj
 0001:00023134       ??$?RV<lambda_c76fdea48760d5f9368b465f31df4405>@@AAV<lambda_e378711a6f6581bf7f0efd7cdf97f5d9>@@V<lambda_e927a58b2a85c081d733e8c6192ae2d2>@@@?$__crt_seh_guarded_call@X@@QAEX$$QAV<lambda_c76fdea48760d5f9368b465f31df4405>@@AAV<lambda_e378711a6f6581bf7f0efd7cdf97f5d9>@@$$QAV<lambda_e927a58b2a85c081d733e8c6192ae2d2>@@@Z 10024134 f i libucrt:wsetlocale.obj
 0001:00023177       ??$__acrt_lock_and_call@V<lambda_e378711a6f6581bf7f0efd7cdf97f5d9>@@@@YAXW4__acrt_lock_id@@$$QAV<lambda_e378711a6f6581bf7f0efd7cdf97f5d9>@@@Z 10024177 f i libucrt:wsetlocale.obj
 0001:000232f9       ___acrt_copy_locale_name   100242f9 f   libucrt:wsetlocale.obj
 0001:0002335f       ___acrt_set_locale_changed 1002435f f   libucrt:wsetlocale.obj
 0001:0002336a       ___acrt_uninitialize_locale 1002436a f   libucrt:wsetlocale.obj
 0001:000233bc       ___lc_lctowcs              100243bc f   libucrt:wsetlocale.obj
 0001:0002342c       ___lc_wcstolc              1002442c f   libucrt:wsetlocale.obj
 0001:0002358a       __expandlocale             1002458a f   libucrt:wsetlocale.obj
 0001:00023901       __wcscats                  10024901 f   libucrt:wsetlocale.obj
 0001:00023942       __wsetlocale               10024942 f   libucrt:wsetlocale.obj
 0001:00024378       ___acrt_initialize_lowio   10025378 f   libucrt:ioinit.obj
 0001:000243ce       ___acrt_uninitialize_lowio 100253ce f   libucrt:ioinit.obj
 0001:000243fa       __fpclass                  100253fa f   libucrt:ieeemisc.obj
 0001:0002449e       __decomp                   1002549e f   libucrt:util.obj
 0001:00024572       __set_exp                  10025572 f   libucrt:util.obj
 0001:000245a1       __sptype                   100255a1 f   libucrt:util.obj
 0001:000245ff       __errcode                  100255ff f   libucrt:fpexcept.obj
 0001:00024633       __except1                  10025633 f   libucrt:fpexcept.obj
 0001:00024701       __handle_exc               10025701 f   libucrt:fpexcept.obj
 0001:000248e1       __raise_exc                100258e1 f   libucrt:fpexcept.obj
 0001:00024904       __raise_exc_ex             10025904 f   libucrt:fpexcept.obj
 0001:00024bf5       __set_errno_from_matherr   10025bf5 f   libucrt:fpexcept.obj
 0001:00024c24       __umatherr                 10025c24 f   libucrt:fpexcept.obj
 0001:00024cc6       __clrfp                    10025cc6 f   libucrt:fpctrl.obj
 0001:00024cd9       __ctrlfp                   10025cd9 f   libucrt:fpctrl.obj
 0001:00024d05       __set_statfp               10025d05 f   libucrt:fpctrl.obj
 0001:00024d60       __statfp                   10025d60 f   libucrt:fpctrl.obj
 0001:00024d72       _iswctype                  10025d72 f   libucrt:iswctype.obj
 0001:00024dd1       __isctype_l                10025dd1 f   libucrt:isctype.obj
 0001:00024ea3       _fegetround                10025ea3 f   libucrt:fegetround.obj
 0001:0002508b       ___acrt_stdio_flush_and_write_narrow_nolock 1002608b f   libucrt:_flsbuf.obj
 0001:00025096       ??$?RV<lambda_61cee617f5178ae960314fd4d05640a0>@@AAV<lambda_6978c1fb23f02e42e1d9e99668cc68aa>@@V<lambda_9cd88cf8ad10232537feb2133f08c833>@@@?$__crt_seh_guarded_call@H@@QAEH$$QAV<lambda_61cee617f5178ae960314fd4d05640a0>@@AAV<lambda_6978c1fb23f02e42e1d9e99668cc68aa>@@$$QAV<lambda_9cd88cf8ad10232537feb2133f08c833>@@@Z 10026096 f i libucrt:commit.obj
 0001:0002512e       ??$__acrt_lowio_lock_fh_and_call@V<lambda_6978c1fb23f02e42e1d9e99668cc68aa>@@@@YAHH$$QAV<lambda_6978c1fb23f02e42e1d9e99668cc68aa>@@@Z 1002612e f i libucrt:commit.obj
 0001:00025156       __commit                   10026156 f   libucrt:commit.obj
 0001:00025755       __write                    10026755 f   libucrt:write.obj
 0001:00025840       __write_nolock             10026840 f   libucrt:write.obj
 0001:00025a4c       ??$?RV<lambda_123407a5e2ac06da108355a851863b7a>@@AAV<lambda_2fe9b910cf3cbf4a0ab98a02ba45b3ec>@@V<lambda_ae55bdf541ad94d75914d381c370e64d>@@@?$__crt_seh_guarded_call@H@@QAEH$$QAV<lambda_123407a5e2ac06da108355a851863b7a>@@AAV<lambda_2fe9b910cf3cbf4a0ab98a02ba45b3ec>@@$$QAV<lambda_ae55bdf541ad94d75914d381c370e64d>@@@Z 10026a4c f i libucrt:close.obj
 0001:00025ace       ??$__acrt_lowio_lock_fh_and_call@V<lambda_2fe9b910cf3cbf4a0ab98a02ba45b3ec>@@@@YAHH$$QAV<lambda_2fe9b910cf3cbf4a0ab98a02ba45b3ec>@@@Z 10026ace f i libucrt:close.obj
 0001:00025af6       __close                    10026af6 f   libucrt:close.obj
 0001:00025b75       __close_nolock             10026b75 f   libucrt:close.obj
 0001:00025c11       ?__acrt_stdio_free_stream@@YAXV__crt_stdio_stream@@@Z 10026c11 f   libucrt:stream.obj
 0001:00025c4c       ___acrt_stdio_free_buffer_nolock 10026c4c f   libucrt:_freebuf.obj
 0001:00025e0b       ___acrt_stdio_refill_and_read_narrow_nolock 10026e0b f   libucrt:_filbuf.obj
 0001:00025e5c       ??$?RV<lambda_9227be29367c048ad7fd93a717dcb1a1>@@AAV<lambda_a463b7b0560cfcaf9b17f27c6ef46564>@@V<lambda_ccea11b5727ccf69be64f5f5d9a08d9f>@@@?$__crt_seh_guarded_call@H@@QAEH$$QAV<lambda_9227be29367c048ad7fd93a717dcb1a1>@@AAV<lambda_a463b7b0560cfcaf9b17f27c6ef46564>@@$$QAV<lambda_ccea11b5727ccf69be64f5f5d9a08d9f>@@@Z 10026e5c f i libucrt:winapi_thunks.obj
 0001:00025ee0       ??$__acrt_lock_and_call@V<lambda_a463b7b0560cfcaf9b17f27c6ef46564>@@@@YAHW4__acrt_lock_id@@$$QAV<lambda_a463b7b0560cfcaf9b17f27c6ef46564>@@@Z 10026ee0 f i libucrt:winapi_thunks.obj
 0001:0002603b       ___acrt_EnumSystemLocalesEx@16 1002703b f   libucrt:winapi_thunks.obj
 0001:000260a8       ___acrt_FlsAlloc@4         100270a8 f   libucrt:winapi_thunks.obj
 0001:000260fe       ___acrt_FlsFree@4          100270fe f   libucrt:winapi_thunks.obj
 0001:00026154       ___acrt_FlsGetValue@4      10027154 f   libucrt:winapi_thunks.obj
 0001:000261aa       ___acrt_FlsSetValue@8      100271aa f   libucrt:winapi_thunks.obj
 0001:00026203       ___acrt_GetLocaleInfoEx@16 10027203 f   libucrt:winapi_thunks.obj
 0001:0002626d       ___acrt_GetUserDefaultLocaleName@8 1002726d f   libucrt:winapi_thunks.obj
 0001:000262d4       ___acrt_InitializeCriticalSectionEx@12 100272d4 f   libucrt:winapi_thunks.obj
 0001:00026336       ___acrt_IsValidLocaleName@4 10027336 f   libucrt:winapi_thunks.obj
 0001:00026399       ___acrt_LCIDToLocaleName@16 10027399 f   libucrt:winapi_thunks.obj
 0001:00026403       ___acrt_LCMapStringEx@36   10027403 f   libucrt:winapi_thunks.obj
 0001:0002648b       ___acrt_LocaleNameToLCID@8 1002748b f   libucrt:winapi_thunks.obj
 0001:000264e7       ___acrt_can_use_vista_locale_apis 100274e7 f   libucrt:winapi_thunks.obj
 0001:000264f3       ___acrt_initialize_winapi_thunks 100274f3 f   libucrt:winapi_thunks.obj
 0001:00026519       ___acrt_is_packaged_app    10027519 f   libucrt:winapi_thunks.obj
 0001:000265a0       ___acrt_uninitialize_winapi_thunks 100275a0 f   libucrt:winapi_thunks.obj
 0001:000265d6       __fcloseall                100275d6 f   libucrt:closeall.obj
 0001:00026ba6       __ftelli64                 10027ba6 f   libucrt:ftell.obj
 0001:00026bb1       __ftelli64_nolock          10027bb1 f   libucrt:ftell.obj
 0001:00026bbc       ___acrt_stdio_allocate_buffer_nolock 10027bbc f   libucrt:_getbuf.obj
 0001:00026d9c       __lseeki64                 10027d9c f   libucrt:lseek.obj
 0001:00026db7       __lseeki64_nolock          10027db7 f   libucrt:lseek.obj
 0001:00026fef       ___acrt_LCMapStringA       10027fef f   libucrt:lcmapstringa.obj
 0001:0002703a       ??$?RV<lambda_978dc153c237d78434369da87b74ff60>@@AAV<lambda_ad1ced32f4ac17aa236e5ef05d6b3b7c>@@V<lambda_4a8533e2866a575feecb8298ce776b0d>@@@?$__crt_seh_guarded_call@X@@QAEX$$QAV<lambda_978dc153c237d78434369da87b74ff60>@@AAV<lambda_ad1ced32f4ac17aa236e5ef05d6b3b7c>@@$$QAV<lambda_4a8533e2866a575feecb8298ce776b0d>@@@Z 1002803a f i libucrt:mbctype.obj
 0001:0002707d       ??$__acrt_lock_and_call@V<lambda_ad1ced32f4ac17aa236e5ef05d6b3b7c>@@@@YAXW4__acrt_lock_id@@$$QAV<lambda_ad1ced32f4ac17aa236e5ef05d6b3b7c>@@@Z 1002807d f i libucrt:mbctype.obj
 0001:00027514       ___acrt_initialize_multibyte 10028514 f   libucrt:mbctype.obj
 0001:00027532       ___acrt_update_thread_multibyte_data 10028532 f   libucrt:mbctype.obj
 0001:000275d4       __setmbcp_nolock           100285d4 f   libucrt:mbctype.obj
 0001:000277fc       ___dcrt_get_narrow_environment_from_os 100287fc f   libucrt:get_environment_from_os.obj
 0001:0002787f       __recalloc                 1002887f f   libucrt:recalloc.obj
 0001:0002788a       __recalloc_base            1002888a f   libucrt:recalloc.obj
 0001:000278f7       ___acrt_initialize_heap    100288f7 f   libucrt:heap_handle.obj
 0001:00027908       ___acrt_uninitialize_heap  10028908 f   libucrt:heap_handle.obj
 0001:00027912       ___acrt_initialize_command_line 10028912 f   libucrt:argv_data.obj
 0001:0002792b       ___acrt_execute_initializers 1002892b f   libucrt:shared_initialization.obj
 0001:000279ae       ___acrt_execute_uninitializers 100289ae f   libucrt:shared_initialization.obj
 0001:000279fb       ??$?RV<lambda_a048d3beccc847880fc8490e18b82769>@@AAV<lambda_ec61778202f4f5fc7e7711acc23c3bca>@@V<lambda_f7496a158712204296dd6628a163878e>@@@?$__crt_seh_guarded_call@P6AXH@Z@@QAEP6AXH@Z$$QAV<lambda_a048d3beccc847880fc8490e18b82769>@@AAV<lambda_ec61778202f4f5fc7e7711acc23c3bca>@@$$QAV<lambda_f7496a158712204296dd6628a163878e>@@@Z 100289fb f i libucrt:signal.obj
 0001:00027a55       ??$__acrt_lock_and_call@V<lambda_ec61778202f4f5fc7e7711acc23c3bca>@@@@YAP6AXH@ZW4__acrt_lock_id@@$$QAV<lambda_ec61778202f4f5fc7e7711acc23c3bca>@@@Z 10028a55 f i libucrt:signal.obj
 0001:00027ae7       ___acrt_get_sigabrt_handler 10028ae7 f   libucrt:signal.obj
 0001:00027afe       ___acrt_initialize_signal_handlers 10028afe f   libucrt:signal.obj
 0001:00027b39       ___fpecode                 10028b39 f   libucrt:signal.obj
 0001:00027b42       _raise                     10028b42 f   libucrt:signal.obj
 0001:00027d4a       ___acrt_has_user_matherr   10028d4a f   libucrt:matherr.obj
 0001:00027d63       ___acrt_initialize_user_matherr 10028d63 f   libucrt:matherr.obj
 0001:00027d77       ___acrt_invoke_user_matherr 10028d77 f   libucrt:matherr.obj
 0001:00027dc0       __isleadbyte_l             10028dc0 f i libucrt:_wctype.obj
 0001:00027f72       __mbstowcs_s_l             10028f72 f   libucrt:mbstowcs.obj
 0001:00028055       _mbstowcs_s                10029055 f   libucrt:mbstowcs.obj
 0001:000282f6       __wcstombs_s_l             100292f6 f   libucrt:wcstombs.obj
 0001:000283c3       __query_new_mode           100293c3 f   libucrt:new_mode.obj
 0001:000284c4       ___acrt_GetLocaleInfoA     100294c4 f   libucrt:getlocaleinfoa.obj
 0001:00028676       ___acrt_GetStringTypeA     10029676 f   libucrt:getstringtypea.obj
 0001:000287a0       __trandisp1                100297a0 f   libucrt:87disp.obj
 0001:00028807       __trandisp2                10029807 f   libucrt:87disp.obj
 0001:00028893       __rttospopde               10029893     libucrt:87disp.obj
 0001:00028898       __rttospop                 10029898     libucrt:87disp.obj
 0001:0002889a       __rtnospop                 1002989a     libucrt:87disp.obj
 0001:0002889c       __rttosnpop                1002989c     libucrt:87disp.obj
 0001:0002889d       __rtnospopde               1002989d     libucrt:87disp.obj
 0001:000288a4       __rtzeropop                100298a4     libucrt:87disp.obj
 0001:000288a6       __rtzeronpop               100298a6     libucrt:87disp.obj
 0001:000288ab       __rtzerospop               100298ab     libucrt:87disp.obj
 0001:000288b8       __rtonepop                 100298b8     libucrt:87disp.obj
 0001:000288ba       __rtonenpop                100298ba     libucrt:87disp.obj
 0001:000288bf       __tosnan1                  100298bf     libucrt:87disp.obj
 0001:000288ea       __nosnan2                  100298ea     libucrt:87disp.obj
 0001:000288ec       __tosnan2                  100298ec     libucrt:87disp.obj
 0001:00028914       __nan2                     10029914     libucrt:87disp.obj
 0001:00028953       __rtindfpop                10029953     libucrt:87disp.obj
 0001:00028955       __rtindfnpop               10029955     libucrt:87disp.obj
 0001:00028966       __rttosnpopde              10029966     libucrt:87disp.obj
 0001:00028970       __rtatan2inf               10029970     libucrt:87disp.obj
 0001:0002898d       __rtchsifneg               1002998d     libucrt:87disp.obj
 0001:000289a0       __startTwoArgErrorHandling 100299a0 f   libucrt:genexcep.obj
 0001:000289b7       __startOneArgErrorHandling 100299b7 f   libucrt:genexcep.obj
 0001:00028a00       __twoToTOS                 10029a00 f   libucrt:common.obj
 0001:00028a15       __load_CW                  10029a15 f   libucrt:common.obj
 0001:00028a2c       __convertTOStoQNaN         10029a2c f   libucrt:common.obj
 0001:00028a45       __fload_withFB             10029a45 f   libucrt:common.obj
 0001:00028a88       __checkTOS_withFB          10029a88 f   libucrt:common.obj
 0001:00028a9e       __fast_exit                10029a9e f   libucrt:common.obj
 0001:00028aab       __math_exit                10029aab f   libucrt:common.obj
 0001:00028ad5       __check_overflow_exit      10029ad5 f   libucrt:common.obj
 0001:00028ae9       __check_range_exit         10029ae9 f   libucrt:common.obj
 0001:00028b8c       __wcsicmp                  10029b8c f   libucrt:wcsicmp.obj
 0001:00028c21       __wcsicmp_l                10029c21 f   libucrt:wcsicmp.obj
 0001:00028d01       ___acrt_initialize_timeset 10029d01 f   libucrt:timeset.obj
 0001:00028d38       ___acrt_add_locale_ref     10029d38 f   libucrt:locale_refcounting.obj
 0001:00028db5       ___acrt_free_locale        10029db5 f   libucrt:locale_refcounting.obj
 0001:00028eff       ___acrt_locale_add_lc_time_reference 10029eff f   libucrt:locale_refcounting.obj
 0001:00028f28       ___acrt_locale_free_lc_time_if_unreferenced 10029f28 f   libucrt:locale_refcounting.obj
 0001:00028f58       ___acrt_locale_release_lc_time_reference 10029f58 f   libucrt:locale_refcounting.obj
 0001:00028f81       ___acrt_release_locale_ref 10029f81 f   libucrt:locale_refcounting.obj
 0001:00029002       ___acrt_update_thread_locale_data 1002a002 f   libucrt:locale_refcounting.obj
 0001:00029079       __updatetlocinfoEx_nolock  1002a079 f   libucrt:locale_refcounting.obj
 0001:000290c9       ___acrt_fp_strflt_to_string 1002a0c9 f   libucrt:_fptostr.obj
 0001:00029185       ??0scoped_fp_state_reset@?A0x3568b024@@QAE@XZ 1002a185 f i libucrt:cfout.obj
 0001:000291af       ___acrt_fltout             1002a1af f   libucrt:cfout.obj
 0001:0002a5cc       __isatty                   1002b5cc f   libucrt:isatty.obj
 0001:0002a622       ___acrt_locale_free_monetary 1002b622 f   libucrt:initmon.obj
 0001:0002a720       ___acrt_locale_initialize_monetary 1002b720 f   libucrt:initmon.obj
 0001:0002aadc       ___acrt_locale_free_numeric 1002badc f   libucrt:initnum.obj
 0001:0002ab45       ___acrt_locale_initialize_numeric 1002bb45 f   libucrt:initnum.obj
 0001:0002b01a       ___acrt_locale_free_time   1002c01a f   libucrt:inittime.obj
 0001:0002b0fe       ___acrt_locale_initialize_time 1002c0fe f   libucrt:inittime.obj
 0001:0002b17d       _wcscat_s                  1002c17d f   libucrt:wcscat_s.obj
 0001:0002b2bf       _wcsncpy_s                 1002c2bf f   libucrt:wcsncpy_s.obj
 0001:0002b2ca       _wcscspn                   1002c2ca f   libucrt:wcscspn.obj
 0001:0002b31a       _wcsncmp                   1002c31a f   libucrt:wcsncmp.obj
 0001:0002b354       _wcspbrk                   1002c354 f   libucrt:wcspbrk.obj
 0001:0002ba97       ___acrt_get_qualified_locale 1002ca97 f   libucrt:get_qualified_locale.obj
 0001:0002c3cf       ___acrt_get_qualified_locale_downlevel 1002d3cf f   libucrt:getqloc_downlevel.obj
 0001:0002c5d6       ___acrt_lowio_create_handle_array 1002d5d6 f   libucrt:osfinfo.obj
 0001:0002c650       ___acrt_lowio_destroy_handle_array 1002d650 f   libucrt:osfinfo.obj
 0001:0002c685       ___acrt_lowio_ensure_fh_exists 1002d685 f   libucrt:osfinfo.obj
 0001:0002c71d       ___acrt_lowio_lock_fh      1002d71d f   libucrt:osfinfo.obj
 0001:0002c740       ___acrt_lowio_unlock_fh    1002d740 f   libucrt:osfinfo.obj
 0001:0002c763       __free_osfhnd              1002d763 f   libucrt:osfinfo.obj
 0001:0002c7f4       __get_osfhandle            1002d7f4 f   libucrt:osfinfo.obj
 0001:0002cb01       __getfpcontrolword         1002db01 f   libucrt:_fenvutils.obj
 0001:0002cb44       __getfpstatusword          1002db44 f   libucrt:_fenvutils.obj
 0001:0002cbec       __setfpcontrolword         1002dbec f   libucrt:_fenvutils.obj
 0001:0002cc6c       __setfpstatusword          1002dc6c f   libucrt:_fenvutils.obj
 0001:0002ccec       __putwch_nolock            1002dcec f   libucrt:putwch.obj
 0001:0002d219       __read                     1002e219 f   libucrt:read.obj
 0001:0002d32c       __read_nolock              1002e32c f   libucrt:read.obj
 0001:0002d79d       ___acrt_DownlevelLCIDToLocaleName 1002e79d f   libucrt:lcidtoname_downlevel.obj
 0001:0002d847       ___acrt_DownlevelLocaleNameToLCID 1002e847 f   libucrt:lcidtoname_downlevel.obj
 0001:0002d882       __msize                    1002e882 f   libucrt:msize.obj
 0001:0002d966       _strncpy_s                 1002e966 f   libucrt:strncpy_s.obj
 0001:0002d971       __wcsnicmp                 1002e971 f   libucrt:wcsnicmp.obj
 0001:0002da29       __wcsnicmp_l               1002ea29 f   libucrt:wcsnicmp.obj
 0001:0002db30       _strncmp                   1002eb30 f   libucrt:strncmp.obj
 0001:0002dba8       __87except                 1002eba8 f   libucrt:87except.obj
 0001:0002dcb3       __towlower_l               1002ecb3 f   libucrt:towlower.obj
 0001:0002dd7c       _fegetenv                  1002ed7c f   libucrt:fegetenv.obj
 0001:0002dd99       _fesetenv                  1002ed99 f   libucrt:fesetenv.obj
 0001:0002dde2       _feholdexcept              1002ede2 f   libucrt:feholdexcept.obj
 0001:0002de40       _log10                     1002ee40 f   libucrt:log10.obj
 0001:0002de80       __CIlog10                  1002ee80 f   libucrt:log10.obj
 0001:0002debb       __CIlog10_default          1002eebb f   libucrt:log10.obj
 0001:0002decf       __log10_default            1002eecf     libucrt:log10.obj
 0001:0002df90       _ceil                      1002ef90 f   libucrt:ceil_pentium4.obj
 0001:0002dfd0       __ceil_pentium4            1002efd0 f   libucrt:ceil_pentium4.obj
 0001:0002e19a       __itow_s                   1002f19a f   libucrt:xtoa.obj
 0001:0002e1cf       __query_app_type           1002f1cf f   libucrt:report_runtime_error.obj
 0001:0002e1d5       ___dcrt_lowio_initialize_console_output 1002f1d5 f   libucrt:initcon.obj
 0001:0002e1f4       ___dcrt_terminate_console_output 1002f1f4 f   libucrt:initcon.obj
 0001:0002e210       ___ascii_strnicmp          1002f210 f   libucrt:_strnicm.obj
 0001:0002e271       ___acrt_LCMapStringW       1002f271 f   libucrt:lcmapstringw.obj
 0001:0002e2af       __clearfp                  1002f2af f   libucrt:ieee87.obj
 0001:0002e38d       ___acrt_initialize_sse2    1002f38d f   libucrt:mathfcns.obj
 0001:0002e3a0       __CIlog10_pentium4         1002f3a0 f   libucrt:log10_pentium4.obj
 0001:0002e3b8       __log10_pentium4           1002f3b8     libucrt:log10_pentium4.obj
 0001:0002e641       __fFEXP                    1002f641     libucrt:87tran.obj
 0001:0002e698       __rtinfpopse               1002f698     libucrt:87tran.obj
 0001:0002e69a       __rtinfnpopse              1002f69a     libucrt:87tran.obj
 0001:0002e6aa       __fFLN                     1002f6aa     libucrt:87tran.obj
 0001:0002e75f       __rtinfpop                 1002f75f     libucrt:87tran.obj
 0001:0002e761       __rtinfnpop                1002f761     libucrt:87tran.obj
 0001:0002e77e       __ffexpm1                  1002f77e     libucrt:87tran.obj
 0001:0002e827       ___libm_error_support      1002f827 f   libucrt:libm_error.obj
 0001:0002ea3f       __ceil_default             1002fa3f f   libucrt:ceil.obj
 0001:0002eaf8       __d_inttype                1002faf8 f   libucrt:powhlp.obj
 0001:0002eb62       __powhlp                   1002fb62 f   libucrt:powhlp.obj
 0001:0002ec8d       __frnd                     1002fc8d f   libucrt:frnd.obj
 0001:0002eca4       _IsProcessorFeaturePresent@4 1002fca4 f   kernel32:KERNEL32.dll
 0001:0002ecaa       _RtlUnwind@16              1002fcaa f   kernel32:KERNEL32.dll
 0001:0002ecb0       _SystemFunction036@8       1002fcb0 f   advapi32:ADVAPI32.dll
 0001:0002ecb6       __EH_epilog3               1002fcb6 f   LIBCMT:ehprolg3.obj
 0001:0002eccb       __EH_prolog3               1002fccb f   LIBCMT:ehprolg3.obj
 0001:0002ecff       __EH_prolog3_catch         1002fcff f   LIBCMT:ehprolg3.obj
 0001:0002ed40       __allmul                   1002fd40 f   LIBCMT:llmul.obj
 0001:0002ed80       __aulldiv                  1002fd80 f   LIBCMT:ulldiv.obj
 0001:0002edf0       __alloca_probe_16          1002fdf0 f   LIBCMT:alloca16.obj
 0001:0002ee06       __alloca_probe_8           1002fe06     LIBCMT:alloca16.obj
 0001:0002ee20       __FindPESection            1002fe20 f   LIBCMT:pesect.obj
 0001:0002ee70       __IsNonwritableInCurrentImage 1002fe70 f   LIBCMT:pesect.obj
 0001:0002ef30       __ValidateImageBase        1002ff30 f   LIBCMT:pesect.obj
 0001:0002ef70       __aulldvrm                 1002ff70 f   LIBCMT:ulldvrm.obj
 0001:0002f010       __allshl                   10030010 f   LIBCMT:llshl.obj
 0001:0002f030       __aullshr                  10030030 f   LIBCMT:ullshr.obj
 0001:0002f050       __SEH_prolog4_GS           10030050 f   LIBCMT:_sehprolg4gs_.obj
 0001:0002f099       __SEH_epilog4_GS           10030099 f   LIBCMT:_sehprolg4gs_.obj
 0001:0002f0b0       __alldvrm                  100300b0 f   LIBCMT:lldvrm.obj
 0001:0002f190       __chkstk                   10030190 f   LIBCMT:chkstk.obj
 0001:0002f190       __alloca_probe             10030190 f   LIBCMT:chkstk.obj
 0001:0002f1c0       __alldiv                   100301c0 f   LIBCMT:lldiv.obj
 0001:0002f270       __ftol2_sse                10030270 f   LIBCMT:_ftol2_.obj
 0001:0002f279       __ftol2_pentium4           10030279 f   LIBCMT:_ftol2_.obj
 0001:0002f28c       __ftol2_sse_excpt          1003028c f   LIBCMT:_ftol2_.obj
 0001:0002f2b0       __ftol2                    100302b0 f   LIBCMT:_ftol2_.obj
 0001:0002f330       _strrchr                   10030330 f   libvcruntime:strrchr.obj
 0001:0002f467       _wcschr                    10030467 f   libvcruntime:wcschr.obj
 0001:0002f520       _atan2                     10030520 f   libucrt:87ctriga.obj
 0001:0002f52a       __CIatan2                  1003052a f   libucrt:87ctriga.obj
 0001:0002f55c       __fFATN2                   1003055c     libucrt:87triga.obj
 0001:0002f5ac       __rtpiby2                  100305ac     libucrt:87triga.obj
 0001:0002f5f0       __cintrindisp2             100305f0 f   libucrt:87cdisp.obj
 0001:0002f634       __cintrindisp1             10030634 f   libucrt:87cdisp.obj
 0001:0002f677       __ctrandisp2               10030677 f   libucrt:87cdisp.obj
 0001:0002f806       __ctrandisp1               10030806 f   libucrt:87cdisp.obj
 0001:0002f839       __fload                    10030839 f   libucrt:87cdisp.obj
 0001:0002fd70       ??__F_Static@?1???$_Immortalize@V_Iostream_error_category@std@@@std@@YAAAV_Iostream_error_category@0@XZ@YAXXZ 10030d70 f i Client.obj
 0002:00000000       __imp__SystemFunction036@8 10031000     advapi32:ADVAPI32.dll
 0002:00000004       \177ADVAPI32_NULL_THUNK_DATA 10031004     advapi32:ADVAPI32.dll
 0002:00000008       __imp__GetModuleHandleA@4  10031008     kernel32:KERNEL32.dll
 0002:0000000c       __imp__Sleep@4             1003100c     kernel32:KERNEL32.dll
 0002:00000010       __imp__GetLastError@0      10031010     kernel32:KERNEL32.dll
 0002:00000014       __imp__DisableThreadLibraryCalls@4 10031014     kernel32:KERNEL32.dll
 0002:00000018       __imp__GetCurrentThread@0  10031018     kernel32:KERNEL32.dll
 0002:0000001c       __imp__CreateThread@24     1003101c     kernel32:KERNEL32.dll
 0002:00000020       __imp__VirtualProtect@16   10031020     kernel32:KERNEL32.dll
 0002:00000024       __imp__lstrlenA@4          10031024     kernel32:KERNEL32.dll
 0002:00000028       __imp__ExitProcess@4       10031028     kernel32:KERNEL32.dll
 0002:0000002c       __imp__FreeLibrary@4       1003102c     kernel32:KERNEL32.dll
 0002:00000030       __imp__GetModuleFileNameA@12 10031030     kernel32:KERNEL32.dll
 0002:00000034       __imp__GetTickCount@0      10031034     kernel32:KERNEL32.dll
 0002:00000038       __imp__GetPrivateProfileStringA@24 10031038     kernel32:KERNEL32.dll
 0002:0000003c       __imp__IsBadReadPtr@8      1003103c     kernel32:KERNEL32.dll
 0002:00000040       __imp__WritePrivateProfileStringA@16 10031040     kernel32:KERNEL32.dll
 0002:00000044       __imp__GetProcAddress@8    10031044     kernel32:KERNEL32.dll
 0002:00000048       __imp__CreateFileW@28      10031048     kernel32:KERNEL32.dll
 0002:0000004c       __imp__HeapSize@12         1003104c     kernel32:KERNEL32.dll
 0002:00000050       __imp__ReadConsoleW@20     10031050     kernel32:KERNEL32.dll
 0002:00000054       __imp__WriteConsoleW@20    10031054     kernel32:KERNEL32.dll
 0002:00000058       __imp__SetStdHandle@8      10031058     kernel32:KERNEL32.dll
 0002:0000005c       __imp__GetCommandLineW@0   1003105c     kernel32:KERNEL32.dll
 0002:00000060       __imp__GetCommandLineA@0   10031060     kernel32:KERNEL32.dll
 0002:00000064       __imp__GetProcessHeap@0    10031064     kernel32:KERNEL32.dll
 0002:00000068       __imp__FreeEnvironmentStringsW@4 10031068     kernel32:KERNEL32.dll
 0002:0000006c       __imp__CloseHandle@4       1003106c     kernel32:KERNEL32.dll
 0002:00000070       __imp__EnterCriticalSection@4 10031070     kernel32:KERNEL32.dll
 0002:00000074       __imp__LeaveCriticalSection@4 10031074     kernel32:KERNEL32.dll
 0002:00000078       __imp__DeleteCriticalSection@4 10031078     kernel32:KERNEL32.dll
 0002:0000007c       __imp__SetEvent@4          1003107c     kernel32:KERNEL32.dll
 0002:00000080       __imp__ResetEvent@4        10031080     kernel32:KERNEL32.dll
 0002:00000084       __imp__WaitForSingleObjectEx@12 10031084     kernel32:KERNEL32.dll
 0002:00000088       __imp__CreateEventW@16     10031088     kernel32:KERNEL32.dll
 0002:0000008c       __imp__GetModuleHandleW@4  1003108c     kernel32:KERNEL32.dll
 0002:00000090       __imp__IsDebuggerPresent@0 10031090     kernel32:KERNEL32.dll
 0002:00000094       __imp__UnhandledExceptionFilter@4 10031094     kernel32:KERNEL32.dll
 0002:00000098       __imp__SetUnhandledExceptionFilter@4 10031098     kernel32:KERNEL32.dll
 0002:0000009c       __imp__GetStartupInfoW@4   1003109c     kernel32:KERNEL32.dll
 0002:000000a0       __imp__IsProcessorFeaturePresent@4 100310a0     kernel32:KERNEL32.dll
 0002:000000a4       __imp__QueryPerformanceCounter@4 100310a4     kernel32:KERNEL32.dll
 0002:000000a8       __imp__GetCurrentProcessId@0 100310a8     kernel32:KERNEL32.dll
 0002:000000ac       __imp__GetCurrentThreadId@0 100310ac     kernel32:KERNEL32.dll
 0002:000000b0       __imp__GetSystemTimeAsFileTime@4 100310b0     kernel32:KERNEL32.dll
 0002:000000b4       __imp__InitializeSListHead@4 100310b4     kernel32:KERNEL32.dll
 0002:000000b8       __imp__GetCurrentProcess@0 100310b8     kernel32:KERNEL32.dll
 0002:000000bc       __imp__TerminateProcess@8  100310bc     kernel32:KERNEL32.dll
 0002:000000c0       __imp__WideCharToMultiByte@32 100310c0     kernel32:KERNEL32.dll
 0002:000000c4       __imp__EncodePointer@4     100310c4     kernel32:KERNEL32.dll
 0002:000000c8       __imp__DecodePointer@4     100310c8     kernel32:KERNEL32.dll
 0002:000000cc       __imp__MultiByteToWideChar@24 100310cc     kernel32:KERNEL32.dll
 0002:000000d0       __imp__SetLastError@4      100310d0     kernel32:KERNEL32.dll
 0002:000000d4       __imp__InitializeCriticalSectionAndSpinCount@8 100310d4     kernel32:KERNEL32.dll
 0002:000000d8       __imp__TlsAlloc@0          100310d8     kernel32:KERNEL32.dll
 0002:000000dc       __imp__TlsGetValue@4       100310dc     kernel32:KERNEL32.dll
 0002:000000e0       __imp__TlsSetValue@8       100310e0     kernel32:KERNEL32.dll
 0002:000000e4       __imp__TlsFree@4           100310e4     kernel32:KERNEL32.dll
 0002:000000e8       __imp__LCMapStringW@24     100310e8     kernel32:KERNEL32.dll
 0002:000000ec       __imp__GetLocaleInfoW@16   100310ec     kernel32:KERNEL32.dll
 0002:000000f0       __imp__GetStringTypeW@16   100310f0     kernel32:KERNEL32.dll
 0002:000000f4       __imp__GetCPInfo@8         100310f4     kernel32:KERNEL32.dll
 0002:000000f8       __imp__FlushInstructionCache@12 100310f8     kernel32:KERNEL32.dll
 0002:000000fc       __imp__VirtualQuery@12     100310fc     kernel32:KERNEL32.dll
 0002:00000100       __imp__LoadLibraryExW@12   10031100     kernel32:KERNEL32.dll
 0002:00000104       __imp__GetModuleFileNameW@12 10031104     kernel32:KERNEL32.dll
 0002:00000108       __imp__RaiseException@16   10031108     kernel32:KERNEL32.dll
 0002:0000010c       __imp__InterlockedFlushSList@4 1003110c     kernel32:KERNEL32.dll
 0002:00000110       __imp__RtlUnwind@16        10031110     kernel32:KERNEL32.dll
 0002:00000114       __imp__GetModuleHandleExW@12 10031114     kernel32:KERNEL32.dll
 0002:00000118       __imp__HeapAlloc@12        10031118     kernel32:KERNEL32.dll
 0002:0000011c       __imp__HeapReAlloc@16      1003111c     kernel32:KERNEL32.dll
 0002:00000120       __imp__HeapFree@12         10031120     kernel32:KERNEL32.dll
 0002:00000124       __imp__GetACP@0            10031124     kernel32:KERNEL32.dll
 0002:00000128       __imp__GetStdHandle@4      10031128     kernel32:KERNEL32.dll
 0002:0000012c       __imp__GetFileType@4       1003112c     kernel32:KERNEL32.dll
 0002:00000130       __imp__FlushFileBuffers@4  10031130     kernel32:KERNEL32.dll
 0002:00000134       __imp__WriteFile@20        10031134     kernel32:KERNEL32.dll
 0002:00000138       __imp__GetConsoleCP@0      10031138     kernel32:KERNEL32.dll
 0002:0000013c       __imp__GetConsoleMode@8    1003113c     kernel32:KERNEL32.dll
 0002:00000140       __imp__IsValidLocale@8     10031140     kernel32:KERNEL32.dll
 0002:00000144       __imp__GetUserDefaultLCID@0 10031144     kernel32:KERNEL32.dll
 0002:00000148       __imp__EnumSystemLocalesW@8 10031148     kernel32:KERNEL32.dll
 0002:0000014c       __imp__ReadFile@20         1003114c     kernel32:KERNEL32.dll
 0002:00000150       __imp__SetFilePointerEx@20 10031150     kernel32:KERNEL32.dll
 0002:00000154       __imp__IsValidCodePage@4   10031154     kernel32:KERNEL32.dll
 0002:00000158       __imp__GetOEMCP@0          10031158     kernel32:KERNEL32.dll
 0002:0000015c       __imp__GetEnvironmentStringsW@0 1003115c     kernel32:KERNEL32.dll
 0002:00000160       __imp__lstrcmpA@8          10031160     kernel32:KERNEL32.dll
 0002:00000164       \177KERNEL32_NULL_THUNK_DATA 10031164     kernel32:KERNEL32.dll
 0002:00000168       __imp__glReadPixels@28     10031168     OpenGL32:OPENGL32.dll
 0002:0000016c       \177OPENGL32_NULL_THUNK_DATA 1003116c     OpenGL32:OPENGL32.dll
 0002:00000170       __imp__MessageBoxA@16      10031170     user32:USER32.dll
 0002:00000174       __imp__GetAsyncKeyState@4  10031174     user32:USER32.dll
 0002:00000178       \177USER32_NULL_THUNK_DATA 10031178     user32:USER32.dll
 0002:0000017c       ___guard_check_icall_fptr  1003117c     LIBCMT:guard_support.obj
 0002:00000180       ___xc_a                    10031180     LIBCMT:initializers.obj
 0002:000001c4       ___xc_z                    100311c4     LIBCMT:initializers.obj
 0002:000001c8       ___xi_a                    100311c8     LIBCMT:initializers.obj
 0002:000001d4       ___acrt_stdio_initializer  100311d4     libucrt:stdio_initializer.obj
 0002:000001d8       ___acrt_multibyte_initializer 100311d8     libucrt:multibyte_initializer.obj
 0002:000001dc       ___acrt_timeset_initializer 100311dc     libucrt:timeset_initializer.obj
 0002:000001e0       ___acrt_tran_sse2_initializer 100311e0     libucrt:sse2_initializer.obj
 0002:000001e4       ___xi_z                    100311e4     LIBCMT:initializers.obj
 0002:000001e8       ___xl_a                    100311e8     LIBCMT:tlssup.obj
 0002:000001ec       ___xl_z                    100311ec     LIBCMT:tlssup.obj
 0002:000001f0       ___xp_a                    100311f0     LIBCMT:initializers.obj
 0002:000001f4       ___acrt_locale_terminator  100311f4     libucrt:locale_initializer.obj
 0002:000001f8       ___dcrt_console_output_terminator 100311f8     libucrt:console_output_initializer.obj
 0002:000001fc       ___acrt_stdio_terminator   100311fc     libucrt:stdio_initializer.obj
 0002:00000200       ___xp_z                    10031200     LIBCMT:initializers.obj
 0002:00000204       ___xt_a                    10031204     LIBCMT:initializers.obj
 0002:00000208       ___xt_z                    10031208     LIBCMT:initializers.obj
 0002:00000210       ??_C@_1BK@MGMFAEKH@?$AAk?$AAe?$AAr?$AAn?$AAe?$AAl?$AA3?$AA2?$AA?4?$AAd?$AAl?$AAl?$AA?$AA@ 10031210     LIBCMT:thread_safe_statics.obj
 0002:0000022c       ??_C@_0BM@HLJJNPAH@InitializeConditionVariable?$AA@ 1003122c     LIBCMT:thread_safe_statics.obj
 0002:00000248       ??_C@_0BJ@JEBJOJFJ@SleepConditionVariableCS?$AA@ 10031248     LIBCMT:thread_safe_statics.obj
 0002:00000264       ??_C@_0BJ@PGPPEPCC@WakeAllConditionVariable?$AA@ 10031264     LIBCMT:thread_safe_statics.obj
 0002:00000284       ??_7type_info@@6B@         10031284     LIBCMT:std_type_info_static.obj
 0002:00000288       __pDefaultRawDllMain       10031288     LIBCMT:dll_dllmain.obj
 0002:00000288       __pRawDllMain              10031288     LIBCMT:dll_dllmain.obj
 0002:00000290       ??_7exception@std@@6B@     10031290     LIBCMT:throw_bad_alloc.obj
 0002:0000029c       ??_7bad_alloc@std@@6B@     1003129c     LIBCMT:throw_bad_alloc.obj
 0002:000002a4       ??_C@_0P@GHFPNOJB@bad?5allocation?$AA@ 100312a4     LIBCMT:throw_bad_alloc.obj
 0002:000002b8       ??_7bad_array_new_length@std@@6B@ 100312b8     LIBCMT:throw_bad_alloc.obj
 0002:000002c0       ??_C@_0BF@KINCDENJ@bad?5array?5new?5length?$AA@ 100312c0     LIBCMT:throw_bad_alloc.obj
 0002:00000334       ??_7_Facet_base@std@@6B@   10031334     libcpmt:locale0.obj
 0002:00000344       ??_7_Locimp@locale@std@@6B@ 10031344     libcpmt:locale0.obj
 0002:00000350       ??_C@_01NBENCBCI@?$CK?$AA@ 10031350     libcpmt:locale0.obj
 0002:00000358       ??_7logic_error@std@@6B@   10031358     libcpmt:xthrow.obj
 0002:00000364       ??_7length_error@std@@6B@  10031364     libcpmt:xthrow.obj
 0002:00000370       ??_7out_of_range@std@@6B@  10031370     libcpmt:xthrow.obj
 0002:0000037c       ??_7runtime_error@std@@6B@ 1003137c     libcpmt:xthrow.obj
 0002:00000388       ?_BADOFF@std@@3_JB         10031388     libcpmt:ios.obj
 0002:00000850       ??_C@_0BN@LKKBCCDB@address?5family?5not?5supported?$AA@ 10031850     libcpmt:syserror.obj
 0002:00000870       ??_C@_0P@LDMLAFHI@address?5in?5use?$AA@ 10031870     libcpmt:syserror.obj
 0002:00000880       ??_C@_0BG@DHPCNBJB@address?5not?5available?$AA@ 10031880     libcpmt:syserror.obj
 0002:00000898       ??_C@_0BC@DFIBIBIL@already?5connected?$AA@ 10031898     libcpmt:syserror.obj
 0002:000008ac       ??_C@_0BH@CAKOHOMI@argument?5list?5too?5long?$AA@ 100318ac     libcpmt:syserror.obj
 0002:000008c4       ??_C@_0BH@CGIMPKIM@argument?5out?5of?5domain?$AA@ 100318c4     libcpmt:syserror.obj
 0002:000008dc       ??_C@_0M@KGHGGJGL@bad?5address?$AA@ 100318dc     libcpmt:syserror.obj
 0002:000008e8       ??_C@_0BE@MPJPGCEO@bad?5file?5descriptor?$AA@ 100318e8     libcpmt:syserror.obj
 0002:000008fc       ??_C@_0M@PMMIEFCP@bad?5message?$AA@ 100318fc     libcpmt:syserror.obj
 0002:00000908       ??_C@_0M@KPHOFDBE@broken?5pipe?$AA@ 10031908     libcpmt:syserror.obj
 0002:00000914       ??_C@_0BD@MGNDDEGM@connection?5aborted?$AA@ 10031914     libcpmt:syserror.obj
 0002:00000928       ??_C@_0BP@KAIHPOGN@connection?5already?5in?5progress?$AA@ 10031928     libcpmt:syserror.obj
 0002:00000948       ??_C@_0BD@PJLIIJEL@connection?5refused?$AA@ 10031948     libcpmt:syserror.obj
 0002:0000095c       ??_C@_0BB@IECNJNOI@connection?5reset?$AA@ 1003195c     libcpmt:syserror.obj
 0002:00000970       ??_C@_0BC@PPHBOELF@cross?5device?5link?$AA@ 10031970     libcpmt:syserror.obj
 0002:00000984       ??_C@_0BN@KDMIFEIP@destination?5address?5required?$AA@ 10031984     libcpmt:syserror.obj
 0002:000009a4       ??_C@_0BI@NGCEHDD@device?5or?5resource?5busy?$AA@ 100319a4     libcpmt:syserror.obj
 0002:000009bc       ??_C@_0BE@JIDOCPHM@directory?5not?5empty?$AA@ 100319bc     libcpmt:syserror.obj
 0002:000009d0       ??_C@_0BI@BNCLIGPB@executable?5format?5error?$AA@ 100319d0     libcpmt:syserror.obj
 0002:000009e8       ??_C@_0M@MIDIAGJP@file?5exists?$AA@ 100319e8     libcpmt:syserror.obj
 0002:000009f4       ??_C@_0P@DNAJLBJK@file?5too?5large?$AA@ 100319f4     libcpmt:syserror.obj
 0002:00000a04       ??_C@_0BC@EJHOMAAK@filename?5too?5long?$AA@ 10031a04     libcpmt:syserror.obj
 0002:00000a18       ??_C@_0BH@KEFGLDAF@function?5not?5supported?$AA@ 10031a18     libcpmt:syserror.obj
 0002:00000a30       ??_C@_0BB@DHFDFGDM@host?5unreachable?$AA@ 10031a30     libcpmt:syserror.obj
 0002:00000a44       ??_C@_0BD@JPHBMONG@identifier?5removed?$AA@ 10031a44     libcpmt:syserror.obj
 0002:00000a58       ??_C@_0BG@CDNPAGJK@illegal?5byte?5sequence?$AA@ 10031a58     libcpmt:syserror.obj
 0002:00000a70       ??_C@_0CD@BNPLBMNA@inappropriate?5io?5control?5operati@ 10031a70     libcpmt:syserror.obj
 0002:00000a94       ??_C@_0M@EGEKIIMP@interrupted?$AA@ 10031a94     libcpmt:syserror.obj
 0002:00000aa0       ??_C@_0BB@FCMFBGOM@invalid?5argument?$AA@ 10031aa0     libcpmt:syserror.obj
 0002:00000ab4       ??_C@_0N@OHAFKDEK@invalid?5seek?$AA@ 10031ab4     libcpmt:syserror.obj
 0002:00000ac4       ??_C@_08GLNPIFBN@io?5error?$AA@ 10031ac4     libcpmt:syserror.obj
 0002:00000ad0       ??_C@_0P@FLLDBIDK@is?5a?5directory?$AA@ 10031ad0     libcpmt:syserror.obj
 0002:00000ae0       ??_C@_0N@IFLPBIOP@message?5size?$AA@ 10031ae0     libcpmt:syserror.obj
 0002:00000af0       ??_C@_0N@KIIEAAIO@network?5down?$AA@ 10031af0     libcpmt:syserror.obj
 0002:00000b00       ??_C@_0O@FNPDBHEE@network?5reset?$AA@ 10031b00     libcpmt:syserror.obj
 0002:00000b10       ??_C@_0BE@IFNCKGE@network?5unreachable?$AA@ 10031b10     libcpmt:syserror.obj
 0002:00000b24       ??_C@_0BA@PFFCAOFK@no?5buffer?5space?$AA@ 10031b24     libcpmt:syserror.obj
 0002:00000b34       ??_C@_0BB@IEPBLJHK@no?5child?5process?$AA@ 10031b34     libcpmt:syserror.obj
 0002:00000b48       ??_C@_07PLECNNKG@no?5link?$AA@ 10031b48     libcpmt:syserror.obj
 0002:00000b50       ??_C@_0BC@NJECKMKE@no?5lock?5available?$AA@ 10031b50     libcpmt:syserror.obj
 0002:00000b64       ??_C@_0BF@PBGGPKKE@no?5message?5available?$AA@ 10031b64     libcpmt:syserror.obj
 0002:00000b7c       ??_C@_0L@EDOLMPAK@no?5message?$AA@ 10031b7c     libcpmt:syserror.obj
 0002:00000b88       ??_C@_0BD@EAMBFIDF@no?5protocol?5option?$AA@ 10031b88     libcpmt:syserror.obj
 0002:00000b9c       ??_C@_0BD@IJDJKDEA@no?5space?5on?5device?$AA@ 10031b9c     libcpmt:syserror.obj
 0002:00000bb0       ??_C@_0BE@MKFDAFMP@no?5stream?5resources?$AA@ 10031bb0     libcpmt:syserror.obj
 0002:00000bc4       ??_C@_0BK@IMCPHCBI@no?5such?5device?5or?5address?$AA@ 10031bc4     libcpmt:syserror.obj
 0002:00000be0       ??_C@_0P@FDINDDOK@no?5such?5device?$AA@ 10031be0     libcpmt:syserror.obj
 0002:00000bf0       ??_C@_0BK@NDOCBPGE@no?5such?5file?5or?5directory?$AA@ 10031bf0     libcpmt:syserror.obj
 0002:00000c0c       ??_C@_0BA@ENLPPKBN@no?5such?5process?$AA@ 10031c0c     libcpmt:syserror.obj
 0002:00000c1c       ??_C@_0BA@DOCPFFJG@not?5a?5directory?$AA@ 10031c1c     libcpmt:syserror.obj
 0002:00000c2c       ??_C@_0N@POEIPGGF@not?5a?5socket?$AA@ 10031c2c     libcpmt:syserror.obj
 0002:00000c3c       ??_C@_0N@LGAPMMPI@not?5a?5stream?$AA@ 10031c3c     libcpmt:syserror.obj
 0002:00000c4c       ??_C@_0O@GLMIBBEG@not?5connected?$AA@ 10031c4c     libcpmt:syserror.obj
 0002:00000c5c       ??_C@_0BC@ENOOLCNF@not?5enough?5memory?$AA@ 10031c5c     libcpmt:syserror.obj
 0002:00000c70       ??_C@_0O@NHEDABJP@not?5supported?$AA@ 10031c70     libcpmt:syserror.obj
 0002:00000c80       ??_C@_0BD@MOLBPMEA@operation?5canceled?$AA@ 10031c80     libcpmt:syserror.obj
 0002:00000c94       ??_C@_0BG@KDKHOPCO@operation?5in?5progress?$AA@ 10031c94     libcpmt:syserror.obj
 0002:00000cac       ??_C@_0BI@OHIEJAAB@operation?5not?5permitted?$AA@ 10031cac     libcpmt:syserror.obj
 0002:00000cc4       ??_C@_0BI@LNEGIFLN@operation?5not?5supported?$AA@ 10031cc4     libcpmt:syserror.obj
 0002:00000cdc       ??_C@_0BG@OEMDKMEE@operation?5would?5block?$AA@ 10031cdc     libcpmt:syserror.obj
 0002:00000cf4       ??_C@_0L@BLPOFLNJ@owner?5dead?$AA@ 10031cf4     libcpmt:syserror.obj
 0002:00000d00       ??_C@_0BC@CIJDGCDI@permission?5denied?$AA@ 10031d00     libcpmt:syserror.obj
 0002:00000d14       ??_C@_0P@FNPOCJBE@protocol?5error?$AA@ 10031d14     libcpmt:syserror.obj
 0002:00000d24       ??_C@_0BH@JPPPLHJB@protocol?5not?5supported?$AA@ 10031d24     libcpmt:syserror.obj
 0002:00000d3c       ??_C@_0BG@EICBIHDP@read?5only?5file?5system?$AA@ 10031d3c     libcpmt:syserror.obj
 0002:00000d54       ??_C@_0BO@BJBOMOEJ@resource?5deadlock?5would?5occur?$AA@ 10031d54     libcpmt:syserror.obj
 0002:00000d74       ??_C@_0BP@LKNGHENJ@resource?5unavailable?5try?5again?$AA@ 10031d74     libcpmt:syserror.obj
 0002:00000d94       ??_C@_0BE@GOIPJJHG@result?5out?5of?5range?$AA@ 10031d94     libcpmt:syserror.obj
 0002:00000da8       ??_C@_0BG@MPLKFPAE@state?5not?5recoverable?$AA@ 10031da8     libcpmt:syserror.obj
 0002:00000dc0       ??_C@_0P@DIIFGFCG@stream?5timeout?$AA@ 10031dc0     libcpmt:syserror.obj
 0002:00000dd0       ??_C@_0P@IPFDMIFL@text?5file?5busy?$AA@ 10031dd0     libcpmt:syserror.obj
 0002:00000de0       ??_C@_09KJPPMAOI@timed?5out?$AA@ 10031de0     libcpmt:syserror.obj
 0002:00000dec       ??_C@_0BO@HACHBEKI@too?5many?5files?5open?5in?5system?$AA@ 10031dec     libcpmt:syserror.obj
 0002:00000e0c       ??_C@_0BE@GHAFMPAH@too?5many?5files?5open?$AA@ 10031e0c     libcpmt:syserror.obj
 0002:00000e20       ??_C@_0P@HCOMKFCC@too?5many?5links?$AA@ 10031e20     libcpmt:syserror.obj
 0002:00000e30       ??_C@_0BO@EFGOJEF@too?5many?5symbolic?5link?5levels?$AA@ 10031e30     libcpmt:syserror.obj
 0002:00000e50       ??_C@_0BA@KGKGOOJA@value?5too?5large?$AA@ 10031e50     libcpmt:syserror.obj
 0002:00000e60       ??_C@_0BE@MIEJDDNH@wrong?5protocol?5type?$AA@ 10031e60     libcpmt:syserror.obj
 0002:00000e74       ??_C@_0O@BFJCFAAK@unknown?5error?$AA@ 10031e74     libcpmt:syserror.obj
 0002:00000f08       __real@3ff0000000000000    10031f08     libcpmt:xfprec.obj
 0002:00000f24       ??_7bad_cast@std@@6B@      10031f24     libcpmt:locale.obj
 0002:00000f30       ??_7?$ctype@D@std@@6B@     10031f30     libcpmt:locale.obj
 0002:00000f60       ??_7?$codecvt@DDU_Mbstatet@@@std@@6B@ 10031f60     libcpmt:locale.obj
 0002:00000ff0       ??_C@_08KNHFBNJ@FlsAlloc?$AA@ 10031ff0     libcpmt:winapisupp.obj
 0002:00000ffc       ??_C@_07PEJMOBNF@FlsFree?$AA@ 10031ffc     libcpmt:winapisupp.obj
 0002:00001004       ??_C@_0M@GDNOONDI@FlsGetValue?$AA@ 10032004     libcpmt:winapisupp.obj
 0002:00001010       ??_C@_0M@JCPCPOEF@FlsSetValue?$AA@ 10032010     libcpmt:winapisupp.obj
 0002:0000101c       ??_C@_0BM@HCFOFFN@InitializeCriticalSectionEx?$AA@ 1003201c     libcpmt:winapisupp.obj
 0002:00001038       ??_C@_0BE@GPLMMCMH@InitOnceExecuteOnce?$AA@ 10032038     libcpmt:winapisupp.obj
 0002:0000104c       ??_C@_0P@DLHPPCNH@CreateEventExW?$AA@ 1003204c     libcpmt:winapisupp.obj
 0002:0000105c       ??_C@_0BB@MEFPJLHN@CreateSemaphoreW?$AA@ 1003205c     libcpmt:winapisupp.obj
 0002:00001070       ??_C@_0BD@KIEEOEEH@CreateSemaphoreExW?$AA@ 10032070     libcpmt:winapisupp.obj
 0002:00001084       ??_C@_0BG@OGFAJCKC@CreateThreadpoolTimer?$AA@ 10032084     libcpmt:winapisupp.obj
 0002:0000109c       ??_C@_0BD@LPLEMMDI@SetThreadpoolTimer?$AA@ 1003209c     libcpmt:winapisupp.obj
 0002:000010b0       ??_C@_0CA@FMNJENH@WaitForThreadpoolTimerCallbacks?$AA@ 100320b0     libcpmt:winapisupp.obj
 0002:000010d0       ??_C@_0BF@DCFCCNOC@CloseThreadpoolTimer?$AA@ 100320d0     libcpmt:winapisupp.obj
 0002:000010e8       ??_C@_0BF@FLABGKKM@CreateThreadpoolWait?$AA@ 100320e8     libcpmt:winapisupp.obj
 0002:00001100       ??_C@_0BC@MGCOHNA@SetThreadpoolWait?$AA@ 10032100     libcpmt:winapisupp.obj
 0002:00001114       ??_C@_0BE@OCIOMIMP@CloseThreadpoolWait?$AA@ 10032114     libcpmt:winapisupp.obj
 0002:00001128       ??_C@_0BJ@LKGHFHBO@FlushProcessWriteBuffers?$AA@ 10032128     libcpmt:winapisupp.obj
 0002:00001144       ??_C@_0BP@KALKKPMO@FreeLibraryWhenCallbackReturns?$AA@ 10032144     libcpmt:winapisupp.obj
 0002:00001164       ??_C@_0BK@DFNBACLA@GetCurrentProcessorNumber?$AA@ 10032164     libcpmt:winapisupp.obj
 0002:00001180       ??_C@_0BE@FKKLLFLM@CreateSymbolicLinkW?$AA@ 10032180     libcpmt:winapisupp.obj
 0002:00001194       ??_C@_0BE@JOGNEJCI@GetCurrentPackageId?$AA@ 10032194     libcpmt:winapisupp.obj
 0002:000011a8       ??_C@_0P@CDHHOHKP@GetTickCount64?$AA@ 100321a8     libcpmt:winapisupp.obj
 0002:000011b8       ??_C@_0BN@NEEHBBPO@GetFileInformationByHandleEx?$AA@ 100321b8     libcpmt:winapisupp.obj
 0002:000011d8       ??_C@_0BL@KBBHGKCM@SetFileInformationByHandle?$AA@ 100321d8     libcpmt:winapisupp.obj
 0002:000011f4       ??_C@_0BP@FPNJPEJC@GetSystemTimePreciseAsFileTime?$AA@ 100321f4     libcpmt:winapisupp.obj
 0002:00001214       ??_C@_0BG@BFNILBLN@WakeConditionVariable?$AA@ 10032214     libcpmt:winapisupp.obj
 0002:0000122c       ??_C@_0BC@MMLHEBPB@InitializeSRWLock?$AA@ 1003222c     libcpmt:winapisupp.obj
 0002:00001240       ??_C@_0BI@OMNLIJDB@AcquireSRWLockExclusive?$AA@ 10032240     libcpmt:winapisupp.obj
 0002:00001258       ??_C@_0BL@OGHFEMNA@TryAcquireSRWLockExclusive?$AA@ 10032258     libcpmt:winapisupp.obj
 0002:00001274       ??_C@_0BI@HMIEPCNJ@ReleaseSRWLockExclusive?$AA@ 10032274     libcpmt:winapisupp.obj
 0002:0000128c       ??_C@_0BK@LGACAGIC@SleepConditionVariableSRW?$AA@ 1003228c     libcpmt:winapisupp.obj
 0002:000012a8       ??_C@_0BF@GGPHFPJA@CreateThreadpoolWork?$AA@ 100322a8     libcpmt:winapisupp.obj
 0002:000012c0       ??_C@_0BF@NHDAIMMO@SubmitThreadpoolWork?$AA@ 100322c0     libcpmt:winapisupp.obj
 0002:000012d8       ??_C@_0BE@NPHIPNPD@CloseThreadpoolWork?$AA@ 100322d8     libcpmt:winapisupp.obj
 0002:000012ec       ??_C@_0BA@IHGNDAEB@CompareStringEx?$AA@ 100322ec     libcpmt:winapisupp.obj
 0002:000012fc       ??_C@_0BA@ONOKGCMP@GetLocaleInfoEx?$AA@ 100322fc     libcpmt:winapisupp.obj
 0002:0000130c       ??_C@_0O@KKBNKAPF@LCMapStringEx?$AA@ 1003230c     libcpmt:winapisupp.obj
 0002:0000131c       ??_C@_11LOCGONAA@?$AA?$AA@ 1003231c     libcpmt:wlocale.obj
 0002:00002190       ??_C@_15EMKDOKLE@?$AAa?$AAr?$AA?$AA@ 10033190     libcpmt:winapinls.obj
 0002:00002198       ??_C@_15KNPADPLH@?$AAb?$AAg?$AA?$AA@ 10033198     libcpmt:winapinls.obj
 0002:000021a0       ??_C@_15EDMHLDMO@?$AAc?$AAa?$AA?$AA@ 100331a0     libcpmt:winapinls.obj
 0002:000021a8       ??_C@_1O@BPEAJADD@?$AAz?$AAh?$AA?9?$AAC?$AAH?$AAS?$AA?$AA@ 100331a8     libcpmt:winapinls.obj
 0002:000021b8       ??_C@_15LJNHCMNK@?$AAc?$AAs?$AA?$AA@ 100331b8     libcpmt:winapinls.obj
 0002:000021c0       ??_C@_15FOMCIDHG@?$AAd?$AAa?$AA?$AA@ 100331c0     libcpmt:winapinls.obj
 0002:000021c8       ??_C@_15NBKABECB@?$AAd?$AAe?$AA?$AA@ 100331c8     libcpmt:winapinls.obj
 0002:000021d0       ??_C@_15GHPEIIAO@?$AAe?$AAl?$AA?$AA@ 100331d0     libcpmt:winapinls.obj
 0002:000021d8       ??_C@_15MNPNEAIF@?$AAe?$AAn?$AA?$AA@ 100331d8     libcpmt:winapinls.obj
 0002:000021e0       ??_C@_15GPIOMPMH@?$AAe?$AAs?$AA?$AA@ 100331e0     libcpmt:winapinls.obj
 0002:000021e8       ??_C@_15NGLOAKJC@?$AAf?$AAi?$AA?$AA@ 100331e8     libcpmt:winapinls.obj
 0002:000021f0       ??_C@_15FBKGNKAM@?$AAf?$AAr?$AA?$AA@ 100331f0     libcpmt:winapinls.obj
 0002:000021f8       ??_C@_15KGGCNEFK@?$AAh?$AAe?$AA?$AA@ 100331f8     libcpmt:winapinls.obj
 0002:00002200       ??_C@_15PGHLIDMF@?$AAh?$AAu?$AA?$AA@ 10033200     libcpmt:winapinls.obj
 0002:00002208       ??_C@_15BIEMAPLM@?$AAi?$AAs?$AA?$AA@ 10033208     libcpmt:winapinls.obj
 0002:00002210       ??_C@_15IFJLDHAF@?$AAi?$AAt?$AA?$AA@ 10033210     libcpmt:winapinls.obj
 0002:00002218       ??_C@_15GEMIOCAG@?$AAj?$AAa?$AA?$AA@ 10033218     libcpmt:winapinls.obj
 0002:00002220       ??_C@_15EPELEGJA@?$AAk?$AAo?$AA?$AA@ 10033220     libcpmt:winapinls.obj
 0002:00002228       ??_C@_15NDDHIMN@?$AAn?$AAl?$AA?$AA@ 10033228     libcpmt:winapinls.obj
 0002:00002230       ??_C@_15BPIGNHCD@?$AAn?$AAo?$AA?$AA@ 10033230     libcpmt:winapinls.obj
 0002:00002238       ??_C@_15DEOPBLCG@?$AAp?$AAl?$AA?$AA@ 10033238     libcpmt:winapinls.obj
 0002:00002240       ??_C@_15KBECGEFG@?$AAp?$AAt?$AA?$AA@ 10033240     libcpmt:winapinls.obj
 0002:00002248       ??_C@_15GLJCBFMD@?$AAr?$AAo?$AA?$AA@ 10033248     libcpmt:winapinls.obj
 0002:00002250       ??_C@_15FEDGKCDI@?$AAr?$AAu?$AA?$AA@ 10033250     libcpmt:winapinls.obj
 0002:00002258       ??_C@_15GLKMLLHM@?$AAh?$AAr?$AA?$AA@ 10033258     libcpmt:winapinls.obj
 0002:00002260       ??_C@_15CPKMFBDB@?$AAs?$AAk?$AA?$AA@ 10033260     libcpmt:winapinls.obj
 0002:00002268       ??_C@_15BAAIOGMK@?$AAs?$AAq?$AA?$AA@ 10033268     libcpmt:winapinls.obj
 0002:00002270       ??_C@_15INNPNOHD@?$AAs?$AAv?$AA?$AA@ 10033270     libcpmt:winapinls.obj
 0002:00002278       ??_C@_15CABMMOGH@?$AAt?$AAh?$AA?$AA@ 10033278     libcpmt:winapinls.obj
 0002:00002280       ??_C@_15BPLIHJJM@?$AAt?$AAr?$AA?$AA@ 10033280     libcpmt:winapinls.obj
 0002:00002288       ??_C@_15NEOEKKDJ@?$AAu?$AAr?$AA?$AA@ 10033288     libcpmt:winapinls.obj
 0002:00002290       ??_C@_15NFICGAJK@?$AAi?$AAd?$AA?$AA@ 10033290     libcpmt:winapinls.obj
 0002:00002298       ??_C@_15PJPFLCCM@?$AAu?$AAk?$AA?$AA@ 10033298     libcpmt:winapinls.obj
 0002:000022a0       ??_C@_15HPJPHDM@?$AAb?$AAe?$AA?$AA@ 100332a0     libcpmt:winapinls.obj
 0002:000022a8       ??_C@_15LCHLGJII@?$AAs?$AAl?$AA?$AA@ 100332a8     libcpmt:winapinls.obj
 0002:000022b0       ??_C@_15PCFJPHHO@?$AAe?$AAt?$AA?$AA@ 100332b0     libcpmt:winapinls.obj
 0002:000022b8       ??_C@_15HPFPGODN@?$AAl?$AAv?$AA?$AA@ 100332b8     libcpmt:winapinls.obj
 0002:000022c0       ??_C@_15NFFGKGLG@?$AAl?$AAt?$AA?$AA@ 100332c0     libcpmt:winapinls.obj
 0002:000022c8       ??_C@_15BDAKCCHN@?$AAf?$AAa?$AA?$AA@ 100332c8     libcpmt:winapinls.obj
 0002:000022d0       ??_C@_15NFGIAIAJ@?$AAv?$AAi?$AA?$AA@ 100332d0     libcpmt:winapinls.obj
 0002:000022d8       ??_C@_15LMKNDMHN@?$AAh?$AAy?$AA?$AA@ 100332d8     libcpmt:winapinls.obj
 0002:000022e0       ??_C@_15IJBHMCFL@?$AAa?$AAz?$AA?$AA@ 100332e0     libcpmt:winapinls.obj
 0002:000022e8       ??_C@_15EKOFJABL@?$AAe?$AAu?$AA?$AA@ 100332e8     libcpmt:winapinls.obj
 0002:000022f0       ??_C@_15BGHADCNK@?$AAm?$AAk?$AA?$AA@ 100332f0     libcpmt:winapinls.obj
 0002:000022f8       ??_C@_15JDNICKHM@?$AAa?$AAf?$AA?$AA@ 100332f8     libcpmt:winapinls.obj
 0002:00002300       ??_C@_15KPJEDBKD@?$AAk?$AAa?$AA?$AA@ 10033300     libcpmt:winapinls.obj
 0002:00002308       ??_C@_15PDNFFFEO@?$AAf?$AAo?$AA?$AA@ 10033308     libcpmt:winapinls.obj
 0002:00002310       ??_C@_15OMLEGLOC@?$AAh?$AAi?$AA?$AA@ 10033310     libcpmt:winapinls.obj
 0002:00002318       ??_C@_15IDNNENKK@?$AAm?$AAs?$AA?$AA@ 10033318     libcpmt:winapinls.obj
 0002:00002320       ??_C@_15MACJNBMH@?$AAk?$AAk?$AA?$AA@ 10033320     libcpmt:winapinls.obj
 0002:00002328       ??_C@_15DKDJEOND@?$AAk?$AAy?$AA?$AA@ 10033328     libcpmt:winapinls.obj
 0002:00002330       ??_C@_15DFGDLJBG@?$AAs?$AAw?$AA?$AA@ 10033330     libcpmt:winapinls.obj
 0002:00002338       ??_C@_15BBFAICNG@?$AAu?$AAz?$AA?$AA@ 10033338     libcpmt:winapinls.obj
 0002:00002340       ??_C@_15DKNDCGEA@?$AAt?$AAt?$AA?$AA@ 10033340     libcpmt:winapinls.obj
 0002:00002348       ??_C@_15MGIFMDPL@?$AAp?$AAa?$AA?$AA@ 10033348     libcpmt:winapinls.obj
 0002:00002350       ??_C@_15HCNDBBA@?$AAg?$AAu?$AA?$AA@ 10033350     libcpmt:winapinls.obj
 0002:00002358       ??_C@_15FNBEIBON@?$AAt?$AAa?$AA?$AA@ 10033358     libcpmt:winapinls.obj
 0002:00002360       ??_C@_15NCHGBGLK@?$AAt?$AAe?$AA?$AA@ 10033360     libcpmt:winapinls.obj
 0002:00002368       ??_C@_15PHPHCBPF@?$AAk?$AAn?$AA?$AA@ 10033368     libcpmt:winapinls.obj
 0002:00002370       ??_C@_15DLGBCKMP@?$AAm?$AAr?$AA?$AA@ 10033370     libcpmt:winapinls.obj
 0002:00002378       ??_C@_15EABBLBFF@?$AAs?$AAa?$AA?$AA@ 10033378     libcpmt:winapinls.obj
 0002:00002380       ??_C@_15CBKOMCOI@?$AAm?$AAn?$AA?$AA@ 10033380     libcpmt:winapinls.obj
 0002:00002388       ??_C@_15CKDMCJAF@?$AAg?$AAl?$AA?$AA@ 10033388     libcpmt:winapinls.obj
 0002:00002390       ??_C@_17CNJFBPG@?$AAk?$AAo?$AAk?$AA?$AA@ 10033390     libcpmt:winapinls.obj
 0002:00002398       ??_C@_17FFBJICPL@?$AAs?$AAy?$AAr?$AA?$AA@ 10033398     libcpmt:winapinls.obj
 0002:000023a0       ??_C@_17KPNDCPAF@?$AAd?$AAi?$AAv?$AA?$AA@ 100333a0     libcpmt:winapinls.obj
 0002:000023a8       ??_C@_1M@OKAHONE@?$AAa?$AAr?$AA?9?$AAS?$AAA?$AA?$AA@ 100333a8     libcpmt:winapinls.obj
 0002:000023b4       ??_C@_1M@FFFIGIGK@?$AAb?$AAg?$AA?9?$AAB?$AAG?$AA?$AA@ 100333b4     libcpmt:winapinls.obj
 0002:000023c0       ??_C@_1M@BJNKEDC@?$AAc?$AAa?$AA?9?$AAE?$AAS?$AA?$AA@ 100333c0     libcpmt:winapinls.obj
 0002:000023cc       ??_C@_1M@CLNBBOPM@?$AAz?$AAh?$AA?9?$AAT?$AAW?$AA?$AA@ 100333cc     libcpmt:winapinls.obj
 0002:000023d8       ??_C@_1M@IJJHFJHA@?$AAc?$AAs?$AA?9?$AAC?$AAZ?$AA?$AA@ 100333d8     libcpmt:winapinls.obj
 0002:000023e4       ??_C@_1M@CLPEOBGI@?$AAd?$AAa?$AA?9?$AAD?$AAK?$AA?$AA@ 100333e4     libcpmt:winapinls.obj
 0002:000023f0       ??_C@_1M@MCMADGCB@?$AAd?$AAe?$AA?9?$AAD?$AAE?$AA?$AA@ 100333f0     libcpmt:winapinls.obj
 0002:000023fc       ??_C@_1M@OOCKEMAM@?$AAe?$AAl?$AA?9?$AAG?$AAR?$AA?$AA@ 100333fc     libcpmt:winapinls.obj
 0002:00002408       ??_C@_1M@BMHNFIME@?$AAe?$AAn?$AA?9?$AAU?$AAS?$AA?$AA@ 10033408     libcpmt:winapinls.obj
 0002:00002414       ??_C@_1M@DDNJFGID@?$AAf?$AAi?$AA?9?$AAF?$AAI?$AA?$AA@ 10033414     libcpmt:winapinls.obj
 0002:00002420       ??_C@_1M@GLIPPMAC@?$AAf?$AAr?$AA?9?$AAF?$AAR?$AA?$AA@ 10033420     libcpmt:winapinls.obj
 0002:0000242c       ??_C@_1M@GFMCHPE@?$AAh?$AAe?$AA?9?$AAI?$AAL?$AA?$AA@ 1003342c     libcpmt:winapinls.obj
 0002:00002438       ??_C@_1M@MHLPGNKM@?$AAh?$AAu?$AA?9?$AAH?$AAU?$AA?$AA@ 10033438     libcpmt:winapinls.obj
 0002:00002444       ??_C@_1M@LPDDNNPN@?$AAi?$AAs?$AA?9?$AAI?$AAS?$AA?$AA@ 10033444     libcpmt:winapinls.obj
 0002:00002450       ??_C@_1M@MADIPODN@?$AAi?$AAt?$AA?9?$AAI?$AAT?$AA?$AA@ 10033450     libcpmt:winapinls.obj
 0002:0000245c       ??_C@_1M@HPNHIDJI@?$AAj?$AAa?$AA?9?$AAJ?$AAP?$AA?$AA@ 1003345c     libcpmt:winapinls.obj
 0002:00002468       ??_C@_1M@JLOOOEGK@?$AAk?$AAo?$AA?9?$AAK?$AAR?$AA?$AA@ 10033468     libcpmt:winapinls.obj
 0002:00002474       ??_C@_1M@IHBJJGG@?$AAn?$AAl?$AA?9?$AAN?$AAL?$AA?$AA@ 10033474     libcpmt:winapinls.obj
 0002:00002480       ??_C@_1M@EANAGDL@?$AAn?$AAb?$AA?9?$AAN?$AAO?$AA?$AA@ 10033480     libcpmt:winapinls.obj
 0002:0000248c       ??_C@_1M@NEIEMEGP@?$AAp?$AAl?$AA?9?$AAP?$AAL?$AA?$AA@ 1003348c     libcpmt:winapinls.obj
 0002:00002498       ??_C@_1M@BOCFIGEP@?$AAp?$AAt?$AA?9?$AAB?$AAR?$AA?$AA@ 10033498     libcpmt:winapinls.obj
 0002:000024a4       ??_C@_1M@IMPFOPBG@?$AAr?$AAo?$AA?9?$AAR?$AAO?$AA?$AA@ 100334a4     libcpmt:winapinls.obj
 0002:000024b0       ??_C@_1M@IDNNEJMM@?$AAr?$AAu?$AA?9?$AAR?$AAU?$AA?$AA@ 100334b0     libcpmt:winapinls.obj
 0002:000024bc       ??_C@_1M@LILEEOGM@?$AAh?$AAr?$AA?9?$AAH?$AAR?$AA?$AA@ 100334bc     libcpmt:winapinls.obj
 0002:000024c8       ??_C@_1M@FKIFEHPB@?$AAs?$AAk?$AA?9?$AAS?$AAK?$AA?$AA@ 100334c8     libcpmt:winapinls.obj
 0002:000024d4       ??_C@_1M@LJMAMNPJ@?$AAs?$AAq?$AA?9?$AAA?$AAL?$AA?$AA@ 100334d4     libcpmt:winapinls.obj
 0002:000024e0       ??_C@_1M@GIAKDKJK@?$AAs?$AAv?$AA?9?$AAS?$AAE?$AA?$AA@ 100334e0     libcpmt:winapinls.obj
 0002:000024ec       ??_C@_1M@MKJKIKCL@?$AAt?$AAh?$AA?9?$AAT?$AAH?$AA?$AA@ 100334ec     libcpmt:winapinls.obj
 0002:000024f8       ??_C@_1M@MFLCCMPB@?$AAt?$AAr?$AA?9?$AAT?$AAR?$AA?$AA@ 100334f8     libcpmt:winapinls.obj
 0002:00002504       ??_C@_1M@OIJHDKJN@?$AAu?$AAr?$AA?9?$AAP?$AAK?$AA?$AA@ 10033504     libcpmt:winapinls.obj
 0002:00002510       ??_C@_1M@LHIPCIEK@?$AAi?$AAd?$AA?9?$AAI?$AAD?$AA?$AA@ 10033510     libcpmt:winapinls.obj
 0002:0000251c       ??_C@_1M@MFMOBGI@?$AAu?$AAk?$AA?9?$AAU?$AAA?$AA?$AA@ 1003351c     libcpmt:winapinls.obj
 0002:00002528       ??_C@_1M@OBGLJIPL@?$AAb?$AAe?$AA?9?$AAB?$AAY?$AA?$AA@ 10033528     libcpmt:winapinls.obj
 0002:00002534       ??_C@_1M@BCFAJEAD@?$AAs?$AAl?$AA?9?$AAS?$AAI?$AA?$AA@ 10033534     libcpmt:winapinls.obj
 0002:00002540       ??_C@_1M@FKFFEDDN@?$AAe?$AAt?$AA?9?$AAE?$AAE?$AA?$AA@ 10033540     libcpmt:winapinls.obj
 0002:0000254c       ??_C@_1M@KGKKAACI@?$AAl?$AAv?$AA?9?$AAL?$AAV?$AA?$AA@ 1003354c     libcpmt:winapinls.obj
 0002:00002558       ??_C@_1M@IFGBIJO@?$AAl?$AAt?$AA?9?$AAL?$AAT?$AA?$AA@ 10033558     libcpmt:winapinls.obj
 0002:00002564       ??_C@_1M@FGEAHEDM@?$AAf?$AAa?$AA?9?$AAI?$AAR?$AA?$AA@ 10033564     libcpmt:winapinls.obj
 0002:00002570       ??_C@_1M@KBMAIBFN@?$AAv?$AAi?$AA?9?$AAV?$AAN?$AA?$AA@ 10033570     libcpmt:winapinls.obj
 0002:0000257c       ??_C@_1M@GPCBKDJK@?$AAh?$AAy?$AA?9?$AAA?$AAM?$AA?$AA@ 1003357c     libcpmt:winapinls.obj
 0002:00002588       ??_C@_1BG@BECMDDJB@?$AAa?$AAz?$AA?9?$AAA?$AAZ?$AA?9?$AAL?$AAa?$AAt?$AAn?$AA?$AA@ 10033588     libcpmt:winapinls.obj
 0002:000025a0       ??_C@_1M@MAOFCAEA@?$AAe?$AAu?$AA?9?$AAE?$AAS?$AA?$AA@ 100335a0     libcpmt:winapinls.obj
 0002:000025ac       ??_C@_1M@IGHABKPI@?$AAm?$AAk?$AA?9?$AAM?$AAK?$AA?$AA@ 100335ac     libcpmt:winapinls.obj
 0002:000025b8       ??_C@_1M@IAIGNEJG@?$AAt?$AAn?$AA?9?$AAZ?$AAA?$AA?$AA@ 100335b8     libcpmt:winapinls.obj
 0002:000025c4       ??_C@_1M@IIJCOJFA@?$AAx?$AAh?$AA?9?$AAZ?$AAA?$AA?$AA@ 100335c4     libcpmt:winapinls.obj
 0002:000025d0       ??_C@_1M@LGPJHNJH@?$AAz?$AAu?$AA?9?$AAZ?$AAA?$AA?$AA@ 100335d0     libcpmt:winapinls.obj
 0002:000025dc       ??_C@_1M@HOKAOIO@?$AAa?$AAf?$AA?9?$AAZ?$AAA?$AA?$AA@ 100335dc     libcpmt:winapinls.obj
 0002:000025e8       ??_C@_1M@DPCLHLIE@?$AAk?$AAa?$AA?9?$AAG?$AAE?$AA?$AA@ 100335e8     libcpmt:winapinls.obj
 0002:000025f4       ??_C@_1M@BLKMHJBI@?$AAf?$AAo?$AA?9?$AAF?$AAO?$AA?$AA@ 100335f4     libcpmt:winapinls.obj
 0002:00002600       ??_C@_1M@LGGJAPPB@?$AAh?$AAi?$AA?9?$AAI?$AAN?$AA?$AA@ 10033600     libcpmt:winapinls.obj
 0002:0000260c       ??_C@_1M@FIKPIHFE@?$AAm?$AAt?$AA?9?$AAM?$AAT?$AA?$AA@ 1003360c     libcpmt:winapinls.obj
 0002:00002618       ??_C@_1M@HEGGPBFA@?$AAs?$AAe?$AA?9?$AAN?$AAO?$AA?$AA@ 10033618     libcpmt:winapinls.obj
 0002:00002624       ??_C@_1M@EIBJEEPA@?$AAm?$AAs?$AA?9?$AAM?$AAY?$AA?$AA@ 10033624     libcpmt:winapinls.obj
 0002:00002630       ??_C@_1M@FHLBGMPP@?$AAk?$AAk?$AA?9?$AAK?$AAZ?$AA?$AA@ 10033630     libcpmt:winapinls.obj
 0002:0000263c       ??_C@_1M@NGJJLCGI@?$AAk?$AAy?$AA?9?$AAK?$AAG?$AA?$AA@ 1003363c     libcpmt:winapinls.obj
 0002:00002648       ??_C@_1M@GIENNBFC@?$AAs?$AAw?$AA?9?$AAK?$AAE?$AA?$AA@ 10033648     libcpmt:winapinls.obj
 0002:00002654       ??_C@_1BG@NDGMJIMJ@?$AAu?$AAz?$AA?9?$AAU?$AAZ?$AA?9?$AAL?$AAa?$AAt?$AAn?$AA?$AA@ 10033654     libcpmt:winapinls.obj
 0002:0000266c       ??_C@_1M@IDCCIHBC@?$AAt?$AAt?$AA?9?$AAR?$AAU?$AA?$AA@ 1003366c     libcpmt:winapinls.obj
 0002:00002678       ??_C@_1M@LOICPMOJ@?$AAb?$AAn?$AA?9?$AAI?$AAN?$AA?$AA@ 10033678     libcpmt:winapinls.obj
 0002:00002684       ??_C@_1M@KPKKNEAH@?$AAp?$AAa?$AA?9?$AAI?$AAN?$AA?$AA@ 10033684     libcpmt:winapinls.obj
 0002:00002690       ??_C@_1M@PJGPPBOG@?$AAg?$AAu?$AA?9?$AAI?$AAN?$AA?$AA@ 10033690     libcpmt:winapinls.obj
 0002:0000269c       ??_C@_1M@KMKMOPHI@?$AAt?$AAa?$AA?9?$AAI?$AAN?$AA?$AA@ 1003369c     libcpmt:winapinls.obj
 0002:000026a8       ??_C@_1M@KFEHEPAC@?$AAt?$AAe?$AA?9?$AAI?$AAN?$AA?$AA@ 100336a8     libcpmt:winapinls.obj
 0002:000026b4       ??_C@_1M@CDCLMGHI@?$AAk?$AAn?$AA?9?$AAI?$AAN?$AA?$AA@ 100336b4     libcpmt:winapinls.obj
 0002:000026c0       ??_C@_1M@MIODLDKF@?$AAm?$AAl?$AA?9?$AAI?$AAN?$AA?$AA@ 100336c0     libcpmt:winapinls.obj
 0002:000026cc       ??_C@_1M@PBIEACPO@?$AAm?$AAr?$AA?9?$AAI?$AAN?$AA?$AA@ 100336cc     libcpmt:winapinls.obj
 0002:000026d8       ??_C@_1M@NIDEAGPH@?$AAs?$AAa?$AA?9?$AAI?$AAN?$AA?$AA@ 100336d8     libcpmt:winapinls.obj
 0002:000026e4       ??_C@_1M@FHIHCBIO@?$AAm?$AAn?$AA?9?$AAM?$AAN?$AA?$AA@ 100336e4     libcpmt:winapinls.obj
 0002:000026f0       ??_C@_1M@JAIJPENP@?$AAc?$AAy?$AA?9?$AAG?$AAB?$AA?$AA@ 100336f0     libcpmt:winapinls.obj
 0002:000026fc       ??_C@_1M@PHGFBEPN@?$AAg?$AAl?$AA?9?$AAE?$AAS?$AA?$AA@ 100336fc     libcpmt:winapinls.obj
 0002:00002708       ??_C@_1O@KPIPDNCP@?$AAk?$AAo?$AAk?$AA?9?$AAI?$AAN?$AA?$AA@ 10033708     libcpmt:winapinls.obj
 0002:00002718       ??_C@_1O@KNHJLDJA@?$AAs?$AAy?$AAr?$AA?9?$AAS?$AAY?$AA?$AA@ 10033718     libcpmt:winapinls.obj
 0002:00002728       ??_C@_1O@MKEKBLAH@?$AAd?$AAi?$AAv?$AA?9?$AAM?$AAV?$AA?$AA@ 10033728     libcpmt:winapinls.obj
 0002:00002738       ??_C@_1O@OHDCKDDF@?$AAq?$AAu?$AAz?$AA?9?$AAB?$AAO?$AA?$AA@ 10033738     libcpmt:winapinls.obj
 0002:00002748       ??_C@_1M@LEPJNLFD@?$AAn?$AAs?$AA?9?$AAZ?$AAA?$AA?$AA@ 10033748     libcpmt:winapinls.obj
 0002:00002754       ??_C@_1M@OMLEIIJB@?$AAm?$AAi?$AA?9?$AAN?$AAZ?$AA?$AA@ 10033754     libcpmt:winapinls.obj
 0002:00002760       ??_C@_1M@PMPEAILG@?$AAa?$AAr?$AA?9?$AAI?$AAQ?$AA?$AA@ 10033760     libcpmt:winapinls.obj
 0002:0000276c       ??_C@_1M@BIBDDEMK@?$AAz?$AAh?$AA?9?$AAC?$AAN?$AA?$AA@ 1003376c     libcpmt:winapinls.obj
 0002:00002778       ??_C@_1M@CNKPNOEE@?$AAd?$AAe?$AA?9?$AAC?$AAH?$AA?$AA@ 10033778     libcpmt:winapinls.obj
 0002:00002784       ??_C@_1M@LKMGMLKO@?$AAe?$AAn?$AA?9?$AAG?$AAB?$AA?$AA@ 10033784     libcpmt:winapinls.obj
 0002:00002790       ??_C@_1M@PGKJFFGL@?$AAe?$AAs?$AA?9?$AAM?$AAX?$AA?$AA@ 10033790     libcpmt:winapinls.obj
 0002:0000279c       ??_C@_1M@DNNANBDC@?$AAf?$AAr?$AA?9?$AAB?$AAE?$AA?$AA@ 1003379c     libcpmt:winapinls.obj
 0002:000027a8       ??_C@_1M@HLGMDFHM@?$AAi?$AAt?$AA?9?$AAC?$AAH?$AA?$AA@ 100337a8     libcpmt:winapinls.obj
 0002:000027b4       ??_C@_1M@CLLBGJH@?$AAn?$AAl?$AA?9?$AAB?$AAE?$AA?$AA@ 100337b4     libcpmt:winapinls.obj
 0002:000027c0       ??_C@_1M@BODBOGLF@?$AAn?$AAn?$AA?9?$AAN?$AAO?$AA?$AA@ 100337c0     libcpmt:winapinls.obj
 0002:000027cc       ??_C@_1M@HFFAHKAD@?$AAp?$AAt?$AA?9?$AAP?$AAT?$AA?$AA@ 100337cc     libcpmt:winapinls.obj
 0002:000027d8       ??_C@_1BG@LNOAKHIE@?$AAs?$AAr?$AA?9?$AAS?$AAP?$AA?9?$AAL?$AAa?$AAt?$AAn?$AA?$AA@ 100337d8     libcpmt:winapinls.obj
 0002:000027f0       ??_C@_1M@HBMHBGAK@?$AAs?$AAv?$AA?9?$AAF?$AAI?$AA?$AA@ 100337f0     libcpmt:winapinls.obj
 0002:000027fc       ??_C@_1BG@DGCJGJBE@?$AAa?$AAz?$AA?9?$AAA?$AAZ?$AA?9?$AAC?$AAy?$AAr?$AAl?$AA?$AA@ 100337fc     libcpmt:winapinls.obj
 0002:00002814       ??_C@_1M@KEJDAAHB@?$AAs?$AAe?$AA?9?$AAS?$AAE?$AA?$AA@ 10033814     libcpmt:winapinls.obj
 0002:00002820       ??_C@_1M@HEIBJJAD@?$AAm?$AAs?$AA?9?$AAB?$AAN?$AA?$AA@ 10033820     libcpmt:winapinls.obj
 0002:0000282c       ??_C@_1BG@PBGJMCEM@?$AAu?$AAz?$AA?9?$AAU?$AAZ?$AA?9?$AAC?$AAy?$AAr?$AAl?$AA?$AA@ 1003382c     libcpmt:winapinls.obj
 0002:00002844       ??_C@_1O@LAOBCMDF@?$AAq?$AAu?$AAz?$AA?9?$AAE?$AAC?$AA?$AA@ 10033844     libcpmt:winapinls.obj
 0002:00002854       ??_C@_1M@POEEMAIO@?$AAa?$AAr?$AA?9?$AAE?$AAG?$AA?$AA@ 10033854     libcpmt:winapinls.obj
 0002:00002860       ??_C@_1M@EFAKDEDL@?$AAz?$AAh?$AA?9?$AAH?$AAK?$AA?$AA@ 10033860     libcpmt:winapinls.obj
 0002:0000286c       ??_C@_1M@HKKIJHGI@?$AAd?$AAe?$AA?9?$AAA?$AAT?$AA?$AA@ 1003386c     libcpmt:winapinls.obj
 0002:00002878       ??_C@_1M@KBFBEHJF@?$AAe?$AAn?$AA?9?$AAA?$AAU?$AA?$AA@ 10033878     libcpmt:winapinls.obj
 0002:00002884       ??_C@_1M@MNPLFAAH@?$AAe?$AAs?$AA?9?$AAE?$AAS?$AA?$AA@ 10033884     libcpmt:winapinls.obj
 0002:00002890       ??_C@_1M@HJOOJFMA@?$AAf?$AAr?$AA?9?$AAC?$AAA?$AA?$AA@ 10033890     libcpmt:winapinls.obj
 0002:0000289c       ??_C@_1BG@JPOFPNAB@?$AAs?$AAr?$AA?9?$AAS?$AAP?$AA?9?$AAC?$AAy?$AAr?$AAl?$AA?$AA@ 1003389c     libcpmt:winapinls.obj
 0002:000028b4       ??_C@_1M@LNFOCMOB@?$AAs?$AAe?$AA?9?$AAF?$AAI?$AA?$AA@ 100338b4     libcpmt:winapinls.obj
 0002:000028c0       ??_C@_1O@MGJBOAMB@?$AAq?$AAu?$AAz?$AA?9?$AAP?$AAE?$AA?$AA@ 100338c0     libcpmt:winapinls.obj
 0002:000028d0       ??_C@_1M@GJINLBOK@?$AAa?$AAr?$AA?9?$AAL?$AAY?$AA?$AA@ 100338d0     libcpmt:winapinls.obj
 0002:000028dc       ??_C@_1M@GGMNHJNL@?$AAz?$AAh?$AA?9?$AAS?$AAG?$AA?$AA@ 100338dc     libcpmt:winapinls.obj
 0002:000028e8       ??_C@_1M@HOIKODND@?$AAd?$AAe?$AA?9?$AAL?$AAU?$AA?$AA@ 100338e8     libcpmt:winapinls.obj
 0002:000028f4       ??_C@_1M@DDOCCGFG@?$AAe?$AAn?$AA?9?$AAC?$AAA?$AA?$AA@ 100338f4     libcpmt:winapinls.obj
 0002:00002900       ??_C@_1M@BNOEMJLF@?$AAe?$AAs?$AA?9?$AAG?$AAT?$AA?$AA@ 10033900     libcpmt:winapinls.obj
 0002:0000290c       ??_C@_1M@EOGNKEK@?$AAf?$AAr?$AA?9?$AAC?$AAH?$AA?$AA@ 1003390c     libcpmt:winapinls.obj
 0002:00002918       ??_C@_1M@FLIDJFHL@?$AAh?$AAr?$AA?9?$AAB?$AAA?$AA?$AA@ 10033918     libcpmt:winapinls.obj
 0002:00002924       ??_C@_1O@FMCELNAJ@?$AAs?$AAm?$AAj?$AA?9?$AAN?$AAO?$AA?$AA@ 10033924     libcpmt:winapinls.obj
 0002:00002934       ??_C@_1M@JHGLJMGJ@?$AAa?$AAr?$AA?9?$AAD?$AAZ?$AA?$AA@ 10033934     libcpmt:winapinls.obj
 0002:00002940       ??_C@_1M@JKKFDCNP@?$AAz?$AAh?$AA?9?$AAM?$AAO?$AA?$AA@ 10033940     libcpmt:winapinls.obj
 0002:0000294c       ??_C@_1M@GEEFALPE@?$AAd?$AAe?$AA?9?$AAL?$AAI?$AA?$AA@ 1003394c     libcpmt:winapinls.obj
 0002:00002958       ??_C@_1M@IGEOFBG@?$AAe?$AAn?$AA?9?$AAN?$AAZ?$AA?$AA@ 10033958     libcpmt:winapinls.obj
 0002:00002964       ??_C@_1M@KDBONEHP@?$AAe?$AAs?$AA?9?$AAC?$AAR?$AA?$AA@ 10033964     libcpmt:winapinls.obj
 0002:00002970       ??_C@_1M@FHMDOHNN@?$AAf?$AAr?$AA?9?$AAL?$AAU?$AA?$AA@ 10033970     libcpmt:winapinls.obj
 0002:0000297c       ??_C@_1BG@NFKKMAFG@?$AAb?$AAs?$AA?9?$AAB?$AAA?$AA?9?$AAL?$AAa?$AAt?$AAn?$AA?$AA@ 1003397c     libcpmt:winapinls.obj
 0002:00002994       ??_C@_1O@IMNBEMCI@?$AAs?$AAm?$AAj?$AA?9?$AAS?$AAE?$AA?$AA@ 10033994     libcpmt:winapinls.obj
 0002:000029a4       ??_C@_1M@DHHMBNDP@?$AAa?$AAr?$AA?9?$AAM?$AAA?$AA?$AA@ 100339a4     libcpmt:winapinls.obj
 0002:000029b0       ??_C@_1M@BNBLJCGH@?$AAe?$AAn?$AA?9?$AAI?$AAE?$AA?$AA@ 100339b0     libcpmt:winapinls.obj
 0002:000029bc       ??_C@_1M@GEPAFMDL@?$AAe?$AAs?$AA?9?$AAP?$AAA?$AA?$AA@ 100339bc     libcpmt:winapinls.obj
 0002:000029c8       ??_C@_1M@OJONDMDL@?$AAf?$AAr?$AA?9?$AAM?$AAC?$AA?$AA@ 100339c8     libcpmt:winapinls.obj
 0002:000029d4       ??_C@_1BG@OBCNFJB@?$AAs?$AAr?$AA?9?$AAB?$AAA?$AA?9?$AAL?$AAa?$AAt?$AAn?$AA?$AA@ 100339d4     libcpmt:winapinls.obj
 0002:000029ec       ??_C@_1O@KEMEEGPO@?$AAs?$AAm?$AAa?$AA?9?$AAN?$AAO?$AA?$AA@ 100339ec     libcpmt:winapinls.obj
 0002:000029fc       ??_C@_1M@ELMGFODK@?$AAa?$AAr?$AA?9?$AAT?$AAN?$AA?$AA@ 100339fc     libcpmt:winapinls.obj
 0002:00002a08       ??_C@_1M@BHDLHFAF@?$AAe?$AAn?$AA?9?$AAZ?$AAA?$AA?$AA@ 10033a08     libcpmt:winapinls.obj
 0002:00002a14       ??_C@_1M@BMGIGLIF@?$AAe?$AAs?$AA?9?$AAD?$AAO?$AA?$AA@ 10033a14     libcpmt:winapinls.obj
 0002:00002a20       ??_C@_1BG@CMBHIPBE@?$AAs?$AAr?$AA?9?$AAB?$AAA?$AA?9?$AAC?$AAy?$AAr?$AAl?$AA?$AA@ 10033a20     libcpmt:winapinls.obj
 0002:00002a38       ??_C@_1O@HEDBLHNP@?$AAs?$AAm?$AAa?$AA?9?$AAS?$AAE?$AA?$AA@ 10033a38     libcpmt:winapinls.obj
 0002:00002a48       ??_C@_1M@DAGCADIM@?$AAa?$AAr?$AA?9?$AAO?$AAM?$AA?$AA@ 10033a48     libcpmt:winapinls.obj
 0002:00002a54       ??_C@_1M@FODLMICG@?$AAe?$AAn?$AA?9?$AAJ?$AAM?$AA?$AA@ 10033a54     libcpmt:winapinls.obj
 0002:00002a60       ??_C@_1M@DNMLCIHB@?$AAe?$AAs?$AA?9?$AAV?$AAE?$AA?$AA@ 10033a60     libcpmt:winapinls.obj
 0002:00002a6c       ??_C@_1O@EOKHMKJK@?$AAs?$AAm?$AAs?$AA?9?$AAF?$AAI?$AA?$AA@ 10033a6c     libcpmt:winapinls.obj
 0002:00002a7c       ??_C@_1M@CAFJMKOF@?$AAa?$AAr?$AA?9?$AAY?$AAE?$AA?$AA@ 10033a7c     libcpmt:winapinls.obj
 0002:00002a88       ??_C@_1M@CBFHIJLI@?$AAe?$AAn?$AA?9?$AAC?$AAB?$AA?$AA@ 10033a88     libcpmt:winapinls.obj
 0002:00002a94       ??_C@_1M@BGNFLDN@?$AAe?$AAs?$AA?9?$AAC?$AAO?$AA?$AA@ 10033a94     libcpmt:winapinls.obj
 0002:00002aa0       ??_C@_1O@JMPHMAMC@?$AAs?$AAm?$AAn?$AA?9?$AAF?$AAI?$AA?$AA@ 10033aa0     libcpmt:winapinls.obj
 0002:00002ab0       ??_C@_1M@JLANABKE@?$AAa?$AAr?$AA?9?$AAS?$AAY?$AA?$AA@ 10033ab0     libcpmt:winapinls.obj
 0002:00002abc       ??_C@_1M@HPKGCFGN@?$AAe?$AAn?$AA?9?$AAB?$AAZ?$AA?$AA@ 10033abc     libcpmt:winapinls.obj
 0002:00002ac8       ??_C@_1M@OLJCMLGM@?$AAe?$AAs?$AA?9?$AAP?$AAE?$AA?$AA@ 10033ac8     libcpmt:winapinls.obj
 0002:00002ad4       ??_C@_1M@MKKGFKLE@?$AAa?$AAr?$AA?9?$AAJ?$AAO?$AA?$AA@ 10033ad4     libcpmt:winapinls.obj
 0002:00002ae0       ??_C@_1M@EKPGLDNI@?$AAe?$AAn?$AA?9?$AAT?$AAT?$AA?$AA@ 10033ae0     libcpmt:winapinls.obj
 0002:00002aec       ??_C@_1M@OONGHFHE@?$AAe?$AAs?$AA?9?$AAA?$AAR?$AA?$AA@ 10033aec     libcpmt:winapinls.obj
 0002:00002af8       ??_C@_1M@OOJFGBHE@?$AAa?$AAr?$AA?9?$AAL?$AAB?$AA?$AA@ 10033af8     libcpmt:winapinls.obj
 0002:00002b04       ??_C@_1M@GCEJHNEG@?$AAe?$AAn?$AA?9?$AAZ?$AAW?$AA?$AA@ 10033b04     libcpmt:winapinls.obj
 0002:00002b10       ??_C@_1M@JNOCAHJI@?$AAe?$AAs?$AA?9?$AAE?$AAC?$AA?$AA@ 10033b10     libcpmt:winapinls.obj
 0002:00002b1c       ??_C@_1M@JEFHPGGB@?$AAa?$AAr?$AA?9?$AAK?$AAW?$AA?$AA@ 10033b1c     libcpmt:winapinls.obj
 0002:00002b28       ??_C@_1M@MLKIBJOJ@?$AAe?$AAn?$AA?9?$AAP?$AAH?$AA?$AA@ 10033b28     libcpmt:winapinls.obj
 0002:00002b34       ??_C@_1M@BDNIPEND@?$AAe?$AAs?$AA?9?$AAC?$AAL?$AA?$AA@ 10033b34     libcpmt:winapinls.obj
 0002:00002b40       ??_C@_1M@MPNMEKBD@?$AAa?$AAr?$AA?9?$AAA?$AAE?$AA?$AA@ 10033b40     libcpmt:winapinls.obj
 0002:00002b4c       ??_C@_1M@KBJALCPI@?$AAe?$AAs?$AA?9?$AAU?$AAY?$AA?$AA@ 10033b4c     libcpmt:winapinls.obj
 0002:00002b58       ??_C@_1M@LLCCOAGA@?$AAa?$AAr?$AA?9?$AAB?$AAH?$AA?$AA@ 10033b58     libcpmt:winapinls.obj
 0002:00002b64       ??_C@_1M@PBFNCDEL@?$AAe?$AAs?$AA?9?$AAP?$AAY?$AA?$AA@ 10033b64     libcpmt:winapinls.obj
 0002:00002b70       ??_C@_1M@EDGINPNP@?$AAa?$AAr?$AA?9?$AAQ?$AAA?$AA?$AA@ 10033b70     libcpmt:winapinls.obj
 0002:00002b7c       ??_C@_1M@MKDBIIJI@?$AAe?$AAs?$AA?9?$AAB?$AAO?$AA?$AA@ 10033b7c     libcpmt:winapinls.obj
 0002:00002b88       ??_C@_1M@CPKKEBLD@?$AAe?$AAs?$AA?9?$AAS?$AAV?$AA?$AA@ 10033b88     libcpmt:winapinls.obj
 0002:00002b94       ??_C@_1M@NDBGMMJL@?$AAe?$AAs?$AA?9?$AAH?$AAN?$AA?$AA@ 10033b94     libcpmt:winapinls.obj
 0002:00002ba0       ??_C@_1M@JIJIBHDP@?$AAe?$AAs?$AA?9?$AAN?$AAI?$AA?$AA@ 10033ba0     libcpmt:winapinls.obj
 0002:00002bac       ??_C@_1M@CGFMKEEK@?$AAe?$AAs?$AA?9?$AAP?$AAR?$AA?$AA@ 10033bac     libcpmt:winapinls.obj
 0002:00002bb8       ??_C@_1O@ICJHKIIK@?$AAz?$AAh?$AA?9?$AAC?$AAH?$AAT?$AA?$AA@ 10033bb8     libcpmt:winapinls.obj
 0002:00002bc8       ??_C@_15CLNEJCE@?$AAs?$AAr?$AA?$AA@ 10033bc8     libcpmt:winapinls.obj
 0002:00002bd0       ??_C@_1M@KAHEKEIG@?$AAa?$AAf?$AA?9?$AAz?$AAa?$AA?$AA@ 10033bd0     libcpmt:winapinls.obj
 0002:00002bdc       ??_C@_1M@GIECOABL@?$AAa?$AAr?$AA?9?$AAa?$AAe?$AA?$AA@ 10033bdc     libcpmt:winapinls.obj
 0002:00002be8       ??_C@_1M@BMLMEKGI@?$AAa?$AAr?$AA?9?$AAb?$AAh?$AA?$AA@ 10033be8     libcpmt:winapinls.obj
 0002:00002bf4       ??_C@_1M@DAPFDGGB@?$AAa?$AAr?$AA?9?$AAd?$AAz?$AA?$AA@ 10033bf4     libcpmt:winapinls.obj
 0002:00002c00       ??_C@_1M@FJNKGKIG@?$AAa?$AAr?$AA?9?$AAe?$AAg?$AA?$AA@ 10033c00     libcpmt:winapinls.obj
 0002:00002c0c       ??_C@_1M@FLGKKCLO@?$AAa?$AAr?$AA?9?$AAi?$AAq?$AA?$AA@ 10033c0c     libcpmt:winapinls.obj
 0002:00002c18       ??_C@_1M@GNDIPALM@?$AAa?$AAr?$AA?9?$AAj?$AAo?$AA?$AA@ 10033c18     libcpmt:winapinls.obj
 0002:00002c24       ??_C@_1M@DDMJFMGJ@?$AAa?$AAr?$AA?9?$AAk?$AAw?$AA?$AA@ 10033c24     libcpmt:winapinls.obj
 0002:00002c30       ??_C@_1M@EJALMLHM@?$AAa?$AAr?$AA?9?$AAl?$AAb?$AA?$AA@ 10033c30     libcpmt:winapinls.obj
 0002:00002c3c       ??_C@_1M@MOBDBLOC@?$AAa?$AAr?$AA?9?$AAl?$AAy?$AA?$AA@ 10033c3c     libcpmt:winapinls.obj
 0002:00002c48       ??_C@_1M@JAOCLHDH@?$AAa?$AAr?$AA?9?$AAm?$AAa?$AA?$AA@ 10033c48     libcpmt:winapinls.obj
 0002:00002c54       ??_C@_1M@JHPMKJIE@?$AAa?$AAr?$AA?9?$AAo?$AAm?$AA?$AA@ 10033c54     libcpmt:winapinls.obj
 0002:00002c60       ??_C@_1M@OEPGHFNH@?$AAa?$AAr?$AA?9?$AAq?$AAa?$AA?$AA@ 10033c60     libcpmt:winapinls.obj
 0002:00002c6c       ??_C@_1M@KJDONENM@?$AAa?$AAr?$AA?9?$AAs?$AAa?$AA?$AA@ 10033c6c     libcpmt:winapinls.obj
 0002:00002c78       ??_C@_1M@DMJDKLKM@?$AAa?$AAr?$AA?9?$AAs?$AAy?$AA?$AA@ 10033c78     libcpmt:winapinls.obj
 0002:00002c84       ??_C@_1M@OMFIPEDC@?$AAa?$AAr?$AA?9?$AAt?$AAn?$AA?$AA@ 10033c84     libcpmt:winapinls.obj
 0002:00002c90       ??_C@_1M@IHMHGAON@?$AAa?$AAr?$AA?9?$AAy?$AAe?$AA?$AA@ 10033c90     libcpmt:winapinls.obj
 0002:00002c9c       ??_C@_1BG@KDCPGJGB@?$AAa?$AAz?$AA?9?$AAa?$AAz?$AA?9?$AAc?$AAy?$AAr?$AAl?$AA?$AA@ 10033c9c     libcpmt:winapinls.obj
 0002:00002cb4       ??_C@_1BG@IBCKDDOE@?$AAa?$AAz?$AA?9?$AAa?$AAz?$AA?9?$AAl?$AAa?$AAt?$AAn?$AA?$AA@ 10033cb4     libcpmt:winapinls.obj
 0002:00002ccc       ??_C@_1M@EGPFDCPD@?$AAb?$AAe?$AA?9?$AAb?$AAy?$AA?$AA@ 10033ccc     libcpmt:winapinls.obj
 0002:00002cd8       ??_C@_1M@PCMGMCGC@?$AAb?$AAg?$AA?9?$AAb?$AAg?$AA?$AA@ 10033cd8     libcpmt:winapinls.obj
 0002:00002ce4       ??_C@_1M@BJBMFGOB@?$AAb?$AAn?$AA?9?$AAi?$AAn?$AA?$AA@ 10033ce4     libcpmt:winapinls.obj
 0002:00002cf0       ??_C@_1BG@EAKMMACD@?$AAb?$AAs?$AA?9?$AAb?$AAa?$AA?9?$AAl?$AAa?$AAt?$AAn?$AA?$AA@ 10033cf0     libcpmt:winapinls.obj
 0002:00002d08       ??_C@_1M@KGADAODK@?$AAc?$AAa?$AA?9?$AAe?$AAs?$AA?$AA@ 10033d08     libcpmt:winapinls.obj
 0002:00002d14       ??_C@_1M@COAJPDHI@?$AAc?$AAs?$AA?9?$AAc?$AAz?$AA?$AA@ 10033d14     libcpmt:winapinls.obj
 0002:00002d20       ??_C@_1M@DHBHFONH@?$AAc?$AAy?$AA?9?$AAg?$AAb?$AA?$AA@ 10033d20     libcpmt:winapinls.obj
 0002:00002d2c       ??_C@_1M@IMGKELGA@?$AAd?$AAa?$AA?9?$AAd?$AAk?$AA?$AA@ 10033d2c     libcpmt:winapinls.obj
 0002:00002d38       ??_C@_1M@NNDGDNGA@?$AAd?$AAe?$AA?9?$AAa?$AAt?$AA?$AA@ 10033d38     libcpmt:winapinls.obj
 0002:00002d44       ??_C@_1M@IKDBHEEM@?$AAd?$AAe?$AA?9?$AAc?$AAh?$AA?$AA@ 10033d44     libcpmt:winapinls.obj
 0002:00002d50       ??_C@_1M@GFFOJMCJ@?$AAd?$AAe?$AA?9?$AAd?$AAe?$AA?$AA@ 10033d50     libcpmt:winapinls.obj
 0002:00002d5c       ??_C@_1M@MDNLKBPM@?$AAd?$AAe?$AA?9?$AAl?$AAi?$AA?$AA@ 10033d5c     libcpmt:winapinls.obj
 0002:00002d68       ??_C@_1M@NJBEEJNL@?$AAd?$AAe?$AA?9?$AAl?$AAu?$AA?$AA@ 10033d68     libcpmt:winapinls.obj
 0002:00002d74       ??_C@_1O@GNNELBAP@?$AAd?$AAi?$AAv?$AA?9?$AAm?$AAv?$AA?$AA@ 10033d74     libcpmt:winapinls.obj
 0002:00002d84       ??_C@_1M@EJLEOGAE@?$AAe?$AAl?$AA?9?$AAg?$AAr?$AA?$AA@ 10033d84     libcpmt:winapinls.obj
 0002:00002d90       ??_C@_1M@GMPONJN@?$AAe?$AAn?$AA?9?$AAa?$AAu?$AA?$AA@ 10033d90     libcpmt:winapinls.obj
 0002:00002d9c       ??_C@_1M@NIDIIPGF@?$AAe?$AAn?$AA?9?$AAb?$AAz?$AA?$AA@ 10033d9c     libcpmt:winapinls.obj
 0002:00002da8       ??_C@_1M@JEHMIMFO@?$AAe?$AAn?$AA?9?$AAc?$AAa?$AA?$AA@ 10033da8     libcpmt:winapinls.obj
 0002:00002db4       ??_C@_1M@IGMJCDLA@?$AAe?$AAn?$AA?9?$AAc?$AAb?$AA?$AA@ 10033db4     libcpmt:winapinls.obj
 0002:00002dc0       ??_C@_1M@BNFIGBKG@?$AAe?$AAn?$AA?9?$AAg?$AAb?$AA?$AA@ 10033dc0     libcpmt:winapinls.obj
 0002:00002dcc       ??_C@_1M@LKIFDIGP@?$AAe?$AAn?$AA?9?$AAi?$AAe?$AA?$AA@ 10033dcc     libcpmt:winapinls.obj
 0002:00002dd8       ??_C@_1M@PJKFGCCO@?$AAe?$AAn?$AA?9?$AAj?$AAm?$AA?$AA@ 10033dd8     libcpmt:winapinls.obj
 0002:00002de4       ??_C@_1M@KPPKEPBO@?$AAe?$AAn?$AA?9?$AAn?$AAz?$AA?$AA@ 10033de4     libcpmt:winapinls.obj
 0002:00002df0       ??_C@_1M@GMDGLDOB@?$AAe?$AAn?$AA?9?$AAp?$AAh?$AA?$AA@ 10033df0     libcpmt:winapinls.obj
 0002:00002dfc       ??_C@_1M@ONGIBJNA@?$AAe?$AAn?$AA?9?$AAt?$AAt?$AA?$AA@ 10033dfc     libcpmt:winapinls.obj
 0002:00002e08       ??_C@_1M@LLODPCMM@?$AAe?$AAn?$AA?9?$AAu?$AAs?$AA?$AA@ 10033e08     libcpmt:winapinls.obj
 0002:00002e14       ??_C@_1M@LAKFNPAN@?$AAe?$AAn?$AA?9?$AAz?$AAa?$AA?$AA@ 10033e14     libcpmt:winapinls.obj
 0002:00002e20       ??_C@_1M@MFNHNHEO@?$AAe?$AAn?$AA?9?$AAz?$AAw?$AA?$AA@ 10033e20     libcpmt:winapinls.obj
 0002:00002e2c       ??_C@_1M@EJEINPHM@?$AAe?$AAs?$AA?9?$AAa?$AAr?$AA?$AA@ 10033e2c     libcpmt:winapinls.obj
 0002:00002e38       ??_C@_1M@GNKPCCJA@?$AAe?$AAs?$AA?9?$AAb?$AAo?$AA?$AA@ 10033e38     libcpmt:winapinls.obj
 0002:00002e44       ??_C@_1M@LEEGFONL@?$AAe?$AAs?$AA?9?$AAc?$AAl?$AA?$AA@ 10033e44     libcpmt:winapinls.obj
 0002:00002e50       ??_C@_1M@KGPDPBDF@?$AAe?$AAs?$AA?9?$AAc?$AAo?$AA?$AA@ 10033e50     libcpmt:winapinls.obj
 0002:00002e5c       ??_C@_1M@EIAHOHH@?$AAe?$AAs?$AA?9?$AAc?$AAr?$AA?$AA@ 10033e5c     libcpmt:winapinls.obj
 0002:00002e68       ??_C@_1M@LLPGMBIN@?$AAe?$AAs?$AA?9?$AAd?$AAo?$AA?$AA@ 10033e68     libcpmt:winapinls.obj
 0002:00002e74       ??_C@_1M@DKHMKNJA@?$AAe?$AAs?$AA?9?$AAe?$AAc?$AA?$AA@ 10033e74     libcpmt:winapinls.obj
 0002:00002e80       ??_C@_1M@GKGFPKAP@?$AAe?$AAs?$AA?9?$AAe?$AAs?$AA?$AA@ 10033e80     libcpmt:winapinls.obj
 0002:00002e8c       ??_C@_1M@LKHKGDLN@?$AAe?$AAs?$AA?9?$AAg?$AAt?$AA?$AA@ 10033e8c     libcpmt:winapinls.obj
 0002:00002e98       ??_C@_1M@HEIIGGJD@?$AAe?$AAs?$AA?9?$AAh?$AAn?$AA?$AA@ 10033e98     libcpmt:winapinls.obj
 0002:00002ea4       ??_C@_1M@FBDHPPGD@?$AAe?$AAs?$AA?9?$AAm?$AAx?$AA?$AA@ 10033ea4     libcpmt:winapinls.obj
 0002:00002eb0       ??_C@_1M@DPAGLNDH@?$AAe?$AAs?$AA?9?$AAn?$AAi?$AA?$AA@ 10033eb0     libcpmt:winapinls.obj
 0002:00002ebc       ??_C@_1M@MDGOPGDD@?$AAe?$AAs?$AA?9?$AAp?$AAa?$AA?$AA@ 10033ebc     libcpmt:winapinls.obj
 0002:00002ec8       ??_C@_1M@EMAMGBGE@?$AAe?$AAs?$AA?9?$AAp?$AAe?$AA?$AA@ 10033ec8     libcpmt:winapinls.obj
 0002:00002ed4       ??_C@_1M@IBMCAOEC@?$AAe?$AAs?$AA?9?$AAp?$AAr?$AA?$AA@ 10033ed4     libcpmt:winapinls.obj
 0002:00002ee0       ??_C@_1M@FGMDIJED@?$AAe?$AAs?$AA?9?$AAp?$AAy?$AA?$AA@ 10033ee0     libcpmt:winapinls.obj
 0002:00002eec       ??_C@_1M@IIDEOLLL@?$AAe?$AAs?$AA?9?$AAs?$AAv?$AA?$AA@ 10033eec     libcpmt:winapinls.obj
 0002:00002ef8       ??_C@_1M@GAOBIPA@?$AAe?$AAs?$AA?9?$AAu?$AAy?$AA?$AA@ 10033ef8     libcpmt:winapinls.obj
 0002:00002f04       ??_C@_1M@JKFFICHJ@?$AAe?$AAs?$AA?9?$AAv?$AAe?$AA?$AA@ 10033f04     libcpmt:winapinls.obj
 0002:00002f10       ??_C@_1M@PNMLOJDF@?$AAe?$AAt?$AA?9?$AAe?$AAe?$AA?$AA@ 10033f10     libcpmt:winapinls.obj
 0002:00002f1c       ??_C@_1M@GHHLIKEI@?$AAe?$AAu?$AA?9?$AAe?$AAs?$AA?$AA@ 10033f1c     libcpmt:winapinls.obj
 0002:00002f28       ??_C@_1M@PBNONODE@?$AAf?$AAa?$AA?9?$AAi?$AAr?$AA?$AA@ 10033f28     libcpmt:winapinls.obj
 0002:00002f34       ??_C@_1M@JEEHPMIL@?$AAf?$AAi?$AA?9?$AAf?$AAi?$AA?$AA@ 10033f34     libcpmt:winapinls.obj
 0002:00002f40       ??_C@_1M@LMDCNDBA@?$AAf?$AAo?$AA?9?$AAf?$AAo?$AA?$AA@ 10033f40     libcpmt:winapinls.obj
 0002:00002f4c       ??_C@_1M@JKEOHLDK@?$AAf?$AAr?$AA?9?$AAb?$AAe?$AA?$AA@ 10033f4c     libcpmt:winapinls.obj
 0002:00002f58       ??_C@_1M@NOHADPMI@?$AAf?$AAr?$AA?9?$AAc?$AAa?$AA?$AA@ 10033f58     libcpmt:winapinls.obj
 0002:00002f64       ??_C@_1M@KDHIHAEC@?$AAf?$AAr?$AA?9?$AAc?$AAh?$AA?$AA@ 10033f64     libcpmt:winapinls.obj
 0002:00002f70       ??_C@_1M@MMBBFGAK@?$AAf?$AAr?$AA?9?$AAf?$AAr?$AA?$AA@ 10033f70     libcpmt:winapinls.obj
 0002:00002f7c       ??_C@_1M@PAFNENNF@?$AAf?$AAr?$AA?9?$AAl?$AAu?$AA?$AA@ 10033f7c     libcpmt:winapinls.obj
 0002:00002f88       ??_C@_1M@EOHDJGDD@?$AAf?$AAr?$AA?9?$AAm?$AAc?$AA?$AA@ 10033f88     libcpmt:winapinls.obj
 0002:00002f94       ??_C@_1M@FAPLLOPF@?$AAg?$AAl?$AA?9?$AAe?$AAs?$AA?$AA@ 10033f94     libcpmt:winapinls.obj
 0002:00002fa0       ??_C@_1M@FOPBFLOO@?$AAg?$AAu?$AA?9?$AAi?$AAn?$AA?$AA@ 10033fa0     libcpmt:winapinls.obj
 0002:00002fac       ??_C@_1M@KBMCINPM@?$AAh?$AAe?$AA?9?$AAi?$AAl?$AA?$AA@ 10033fac     libcpmt:winapinls.obj
 0002:00002fb8       ??_C@_1M@BBPHKFPJ@?$AAh?$AAi?$AA?9?$AAi?$AAn?$AA?$AA@ 10033fb8     libcpmt:winapinls.obj
 0002:00002fc4       ??_C@_1M@PMBNDPHD@?$AAh?$AAr?$AA?9?$AAb?$AAa?$AA?$AA@ 10033fc4     libcpmt:winapinls.obj
 0002:00002fd0       ??_C@_1M@BPCKOEGE@?$AAh?$AAr?$AA?9?$AAh?$AAr?$AA?$AA@ 10033fd0     libcpmt:winapinls.obj
 0002:00002fdc       ??_C@_1M@GACBMHKE@?$AAh?$AAu?$AA?9?$AAh?$AAu?$AA?$AA@ 10033fdc     libcpmt:winapinls.obj
 0002:00002fe8       ??_C@_1M@MILPAJJC@?$AAh?$AAy?$AA?9?$AAa?$AAm?$AA?$AA@ 10033fe8     libcpmt:winapinls.obj
 0002:00002ff4       ??_C@_1M@BABBICEC@?$AAi?$AAd?$AA?9?$AAi?$AAd?$AA?$AA@ 10033ff4     libcpmt:winapinls.obj
 0002:00003000       ??_C@_1M@BIKNHHPF@?$AAi?$AAs?$AA?9?$AAi?$AAs?$AA?$AA@ 10034000     libcpmt:winapinls.obj
 0002:0000300c       ??_C@_1M@NMPCJPHE@?$AAi?$AAt?$AA?9?$AAc?$AAh?$AA?$AA@ 1003400c     libcpmt:winapinls.obj
 0002:00003018       ??_C@_1M@GHKGFEDF@?$AAi?$AAt?$AA?9?$AAi?$AAt?$AA?$AA@ 10034018     libcpmt:winapinls.obj
 0002:00003024       ??_C@_1M@NIEJCJJA@?$AAj?$AAa?$AA?9?$AAj?$AAp?$AA?$AA@ 10034024     libcpmt:winapinls.obj
 0002:00003030       ??_C@_1M@JILFNBIM@?$AAk?$AAa?$AA?9?$AAg?$AAe?$AA?$AA@ 10034030     libcpmt:winapinls.obj
 0002:0000303c       ??_C@_1M@PACPMGPH@?$AAk?$AAk?$AA?9?$AAk?$AAz?$AA?$AA@ 1003403c     libcpmt:winapinls.obj
 0002:00003048       ??_C@_1M@IELFGMHA@?$AAk?$AAn?$AA?9?$AAi?$AAn?$AA?$AA@ 10034048     libcpmt:winapinls.obj
 0002:00003054       ??_C@_1M@DMHAEOGC@?$AAk?$AAo?$AA?9?$AAk?$AAr?$AA?$AA@ 10034054     libcpmt:winapinls.obj
 0002:00003060       ??_C@_1O@IBBJHCH@?$AAk?$AAo?$AAk?$AA?9?$AAi?$AAn?$AA?$AA@ 10034060     libcpmt:winapinls.obj
 0002:00003070       ??_C@_1M@HBAHBIGA@?$AAk?$AAy?$AA?9?$AAk?$AAg?$AA?$AA@ 10034070     libcpmt:winapinls.obj
 0002:0000307c       ??_C@_1M@KPMILCJG@?$AAl?$AAt?$AA?9?$AAl?$AAt?$AA?$AA@ 1003407c     libcpmt:winapinls.obj
 0002:00003088       ??_C@_1M@BDEKKCA@?$AAl?$AAv?$AA?9?$AAl?$AAv?$AA?$AA@ 10034088     libcpmt:winapinls.obj
 0002:00003094       ??_C@_1M@ELCKCCJJ@?$AAm?$AAi?$AA?9?$AAn?$AAz?$AA?$AA@ 10034094     libcpmt:winapinls.obj
 0002:000030a0       ??_C@_1M@CBOOLAPA@?$AAm?$AAk?$AA?9?$AAm?$AAk?$AA?$AA@ 100340a0     libcpmt:winapinls.obj
 0002:000030ac       ??_C@_1M@GPHNBJKN@?$AAm?$AAl?$AA?9?$AAi?$AAn?$AA?$AA@ 100340ac     libcpmt:winapinls.obj
 0002:000030b8       ??_C@_1M@PABJILIG@?$AAm?$AAn?$AA?9?$AAm?$AAn?$AA?$AA@ 100340b8     libcpmt:winapinls.obj
 0002:000030c4       ??_C@_1M@FGBKKIPG@?$AAm?$AAr?$AA?9?$AAi?$AAn?$AA?$AA@ 100340c4     libcpmt:winapinls.obj
 0002:000030d0       ??_C@_1M@NDBPDDAL@?$AAm?$AAs?$AA?9?$AAb?$AAn?$AA?$AA@ 100340d0     libcpmt:winapinls.obj
 0002:000030dc       ??_C@_1M@OPIHOOPI@?$AAm?$AAs?$AA?9?$AAm?$AAy?$AA?$AA@ 100340dc     libcpmt:winapinls.obj
 0002:000030e8       ??_C@_1M@PPDBCNFM@?$AAm?$AAt?$AA?9?$AAm?$AAt?$AA?$AA@ 100340e8     libcpmt:winapinls.obj
 0002:000030f4       ??_C@_1M@KDJDKMDD@?$AAn?$AAb?$AA?9?$AAn?$AAo?$AA?$AA@ 100340f4     libcpmt:winapinls.obj
 0002:00003100       ??_C@_1M@KFCFLMJP@?$AAn?$AAl?$AA?9?$AAb?$AAe?$AA?$AA@ 10034100     libcpmt:winapinls.obj
 0002:0000310c       ??_C@_1M@KPOPDDGO@?$AAn?$AAl?$AA?9?$AAn?$AAl?$AA?$AA@ 1003410c     libcpmt:winapinls.obj
 0002:00003118       ??_C@_1M@LJKPEMLN@?$AAn?$AAn?$AA?9?$AAn?$AAo?$AA?$AA@ 10034118     libcpmt:winapinls.obj
 0002:00003124       ??_C@_1M@BDGHHBFL@?$AAn?$AAs?$AA?9?$AAz?$AAa?$AA?$AA@ 10034124     libcpmt:winapinls.obj
 0002:00003130       ??_C@_1M@IDEHOAP@?$AAp?$AAa?$AA?9?$AAi?$AAn?$AA?$AA@ 10034130     libcpmt:winapinls.obj
 0002:0000313c       ??_C@_1M@HDBKGOGH@?$AAp?$AAl?$AA?9?$AAp?$AAl?$AA?$AA@ 1003413c     libcpmt:winapinls.obj
 0002:00003148       ??_C@_1M@LJLLCMEH@?$AAp?$AAt?$AA?9?$AAb?$AAr?$AA?$AA@ 10034148     libcpmt:winapinls.obj
 0002:00003154       ??_C@_1M@NCMONAAL@?$AAp?$AAt?$AA?9?$AAp?$AAt?$AA?$AA@ 10034154     libcpmt:winapinls.obj
 0002:00003160       ??_C@_1O@EAKMAJDN@?$AAq?$AAu?$AAz?$AA?9?$AAb?$AAo?$AA?$AA@ 10034160     libcpmt:winapinls.obj
 0002:00003170       ??_C@_1O@BHHPIGDN@?$AAq?$AAu?$AAz?$AA?9?$AAe?$AAc?$AA?$AA@ 10034170     libcpmt:winapinls.obj
 0002:00003180       ??_C@_1O@GBAPEKMJ@?$AAq?$AAu?$AAz?$AA?9?$AAp?$AAe?$AA?$AA@ 10034180     libcpmt:winapinls.obj
 0002:00003190       ??_C@_1M@CLGLEFBO@?$AAr?$AAo?$AA?9?$AAr?$AAo?$AA?$AA@ 10034190     libcpmt:winapinls.obj
 0002:0000319c       ??_C@_1M@CEEDODME@?$AAr?$AAu?$AA?9?$AAr?$AAu?$AA?$AA@ 1003419c     libcpmt:winapinls.obj
 0002:000031a8       ??_C@_1M@HPKKKMPP@?$AAs?$AAa?$AA?9?$AAi?$AAn?$AA?$AA@ 100341a8     libcpmt:winapinls.obj
 0002:000031b4       ??_C@_1M@BKMAIGOJ@?$AAs?$AAe?$AA?9?$AAf?$AAi?$AA?$AA@ 100341b4     libcpmt:winapinls.obj
 0002:000031c0       ??_C@_1M@NDPIFLFI@?$AAs?$AAe?$AA?9?$AAn?$AAo?$AA?$AA@ 100341c0     libcpmt:winapinls.obj
 0002:000031cc       ??_C@_1M@DANKKHJ@?$AAs?$AAe?$AA?9?$AAs?$AAe?$AA?$AA@ 100341cc     libcpmt:winapinls.obj
 0002:000031d8       ??_C@_1M@PNBLONPJ@?$AAs?$AAk?$AA?9?$AAs?$AAk?$AA?$AA@ 100341d8     libcpmt:winapinls.obj
 0002:000031e4       ??_C@_1M@LFMODOAL@?$AAs?$AAl?$AA?9?$AAs?$AAi?$AA?$AA@ 100341e4     libcpmt:winapinls.obj
 0002:000031f0       ??_C@_1O@DFKOMPG@?$AAs?$AAm?$AAa?$AA?9?$AAn?$AAo?$AA?$AA@ 100341f0     libcpmt:winapinls.obj
 0002:00003200       ??_C@_1O@NDKPBNNH@?$AAs?$AAm?$AAa?$AA?9?$AAs?$AAe?$AA?$AA@ 10034200     libcpmt:winapinls.obj
 0002:00003210       ??_C@_1O@PLLKBHAB@?$AAs?$AAm?$AAj?$AA?9?$AAn?$AAo?$AA?$AA@ 10034210     libcpmt:winapinls.obj
 0002:00003220       ??_C@_1O@CLEPOGCA@?$AAs?$AAm?$AAj?$AA?9?$AAs?$AAe?$AA?$AA@ 10034220     libcpmt:winapinls.obj
 0002:00003230       ??_C@_1O@DLGJGKMK@?$AAs?$AAm?$AAn?$AA?9?$AAf?$AAi?$AA?$AA@ 10034230     libcpmt:winapinls.obj
 0002:00003240       ??_C@_1O@OJDJGAJC@?$AAs?$AAm?$AAs?$AA?9?$AAf?$AAi?$AA?$AA@ 10034240     libcpmt:winapinls.obj
 0002:00003250       ??_C@_1M@BOFOGHPB@?$AAs?$AAq?$AA?9?$AAa?$AAl?$AA?$AA@ 10034250     libcpmt:winapinls.obj
 0002:0000325c       ??_C@_1BG@LJBBIPGB@?$AAs?$AAr?$AA?9?$AAb?$AAa?$AA?9?$AAc?$AAy?$AAr?$AAl?$AA?$AA@ 1003425c     libcpmt:winapinls.obj
 0002:00003274       ??_C@_1BG@JLBENFOE@?$AAs?$AAr?$AA?9?$AAb?$AAa?$AA?9?$AAl?$AAa?$AAt?$AAn?$AA?$AA@ 10034274     libcpmt:winapinls.obj
 0002:0000328c       ??_C@_1BG@KODPNHE@?$AAs?$AAr?$AA?9?$AAs?$AAp?$AA?9?$AAc?$AAy?$AAr?$AAl?$AA?$AA@ 1003428c     libcpmt:winapinls.obj
 0002:000032a4       ??_C@_1BG@CIOGKHPB@?$AAs?$AAr?$AA?9?$AAs?$AAp?$AA?9?$AAl?$AAa?$AAt?$AAn?$AA?$AA@ 100342a4     libcpmt:winapinls.obj
 0002:000032bc       ??_C@_1M@NGFJLMAC@?$AAs?$AAv?$AA?9?$AAf?$AAi?$AA?$AA@ 100342bc     libcpmt:winapinls.obj
 0002:000032c8       ??_C@_1M@MPJEJAJC@?$AAs?$AAv?$AA?9?$AAs?$AAe?$AA?$AA@ 100342c8     libcpmt:winapinls.obj
 0002:000032d4       ??_C@_1M@MPNDHLFK@?$AAs?$AAw?$AA?9?$AAk?$AAe?$AA?$AA@ 100342d4     libcpmt:winapinls.obj
 0002:000032e0       ??_C@_1O@KOHBJJI@?$AAs?$AAy?$AAr?$AA?9?$AAs?$AAy?$AA?$AA@ 100342e0     libcpmt:winapinls.obj
 0002:000032f0       ??_C@_1M@LDCEFHA@?$AAt?$AAa?$AA?9?$AAi?$AAn?$AA?$AA@ 100342f0     libcpmt:winapinls.obj
 0002:000032fc       ??_C@_1M@CNJOFAK@?$AAt?$AAe?$AA?9?$AAi?$AAn?$AA?$AA@ 100342fc     libcpmt:winapinls.obj
 0002:00003308       ??_C@_1M@GNAECACD@?$AAt?$AAh?$AA?9?$AAt?$AAh?$AA?$AA@ 10034308     libcpmt:winapinls.obj
 0002:00003314       ??_C@_1M@CHBIHOJO@?$AAt?$AAn?$AA?9?$AAz?$AAa?$AA?$AA@ 10034314     libcpmt:winapinls.obj
 0002:00003320       ??_C@_1M@GCCMIGPJ@?$AAt?$AAr?$AA?9?$AAt?$AAr?$AA?$AA@ 10034320     libcpmt:winapinls.obj
 0002:0000332c       ??_C@_1M@CELMCNBK@?$AAt?$AAt?$AA?9?$AAr?$AAu?$AA?$AA@ 1003432c     libcpmt:winapinls.obj
 0002:00003338       ??_C@_1M@KLMCELGA@?$AAu?$AAk?$AA?9?$AAu?$AAa?$AA?$AA@ 10034338     libcpmt:winapinls.obj
 0002:00003344       ??_C@_1M@EPAJJAJF@?$AAu?$AAr?$AA?9?$AAp?$AAk?$AA?$AA@ 10034344     libcpmt:winapinls.obj
 0002:00003350       ??_C@_1BG@GEGPMCDJ@?$AAu?$AAz?$AA?9?$AAu?$AAz?$AA?9?$AAc?$AAy?$AAr?$AAl?$AA?$AA@ 10034350     libcpmt:winapinls.obj
 0002:00003368       ??_C@_1BG@EGGKJILM@?$AAu?$AAz?$AA?9?$AAu?$AAz?$AA?9?$AAl?$AAa?$AAt?$AAn?$AA?$AA@ 10034368     libcpmt:winapinls.obj
 0002:00003380       ??_C@_1M@GFOCLFF@?$AAv?$AAi?$AA?9?$AAv?$AAn?$AA?$AA@ 10034380     libcpmt:winapinls.obj
 0002:0000338c       ??_C@_1M@CPAMEDFI@?$AAx?$AAh?$AA?9?$AAz?$AAa?$AA?$AA@ 1003438c     libcpmt:winapinls.obj
 0002:00003398       ??_C@_1O@EBKIFIGN@?$AAz?$AAh?$AA?9?$AAc?$AAh?$AAs?$AA?$AA@ 10034398     libcpmt:winapinls.obj
 0002:000033a8       ??_C@_1O@NMHPGANE@?$AAz?$AAh?$AA?9?$AAc?$AAh?$AAt?$AA?$AA@ 100343a8     libcpmt:winapinls.obj
 0002:000033b8       ??_C@_1M@LPINJOMC@?$AAz?$AAh?$AA?9?$AAc?$AAn?$AA?$AA@ 100343b8     libcpmt:winapinls.obj
 0002:000033c4       ??_C@_1M@OCJEJODD@?$AAz?$AAh?$AA?9?$AAh?$AAk?$AA?$AA@ 100343c4     libcpmt:winapinls.obj
 0002:000033d0       ??_C@_1M@DNDLJINH@?$AAz?$AAh?$AA?9?$AAm?$AAo?$AA?$AA@ 100343d0     libcpmt:winapinls.obj
 0002:000033dc       ??_C@_1M@MBFDNDND@?$AAz?$AAh?$AA?9?$AAs?$AAg?$AA?$AA@ 100343dc     libcpmt:winapinls.obj
 0002:000033e8       ??_C@_1M@IMEPLEPE@?$AAz?$AAh?$AA?9?$AAt?$AAw?$AA?$AA@ 100343e8     libcpmt:winapinls.obj
 0002:000033f4       ??_C@_1M@BBGHNHJP@?$AAz?$AAu?$AA?9?$AAz?$AAa?$AA?$AA@ 100343f4     libcpmt:winapinls.obj
 0002:00003400       ?s_rbModRm@CDetourDis@@1QBEB 10034400     detours:disasm.obj
 0002:00003500       ?s_rceCopyTable@CDetourDis@@1QBUCOPYENTRY@1@B 10034500     detours:disasm.obj
 0002:00003d08       ?s_rceCopyTable0F@CDetourDis@@1QBUCOPYENTRY@1@B 10034d08     detours:disasm.obj
 0002:00004510       __pDestructExceptionObject 10035510     libvcruntime:frame.obj
 0002:00004518       ??_7bad_exception@std@@6B@ 10035518     libvcruntime:frame.obj
 0002:00004520       ??_C@_0O@DPKOEFFH@bad?5exception?$AA@ 10035520     libvcruntime:frame.obj
 0002:00004540       ??_C@_1BC@DNHGCMLG@?$AAa?$AAd?$AAv?$AAa?$AAp?$AAi?$AA3?$AA2?$AA?$AA@ 10035540     libvcruntime:winapi_downlevel.obj
 0002:00004554       ??_C@_1DM@KHCHBNEB@?$AAa?$AAp?$AAi?$AA?9?$AAm?$AAs?$AA?9?$AAw?$AAi?$AAn?$AA?9?$AAc?$AAo?$AAr?$AAe?$AA?9?$AAf?$AAi?$AAb?$AAe?$AAr?$AAs?$AA?9?$AAl?$AA1?$AA?9?$AA1?$AA?9?$AA1?$AA?$AA@ 10035554     libvcruntime:winapi_downlevel.obj
 0002:00004590       ??_C@_1DK@LPPGFMPP@?$AAa?$AAp?$AAi?$AA?9?$AAm?$AAs?$AA?9?$AAw?$AAi?$AAn?$AA?9?$AAc?$AAo?$AAr?$AAe?$AA?9?$AAs?$AAy?$AAn?$AAc?$AAh?$AA?9?$AAl?$AA1?$AA?9?$AA2?$AA?9?$AA0?$AA?$AA@ 10035590     libvcruntime:winapi_downlevel.obj
 0002:000045cc       ??_C@_1BC@GDMECMAK@?$AAk?$AAe?$AAr?$AAn?$AAe?$AAl?$AA3?$AA2?$AA?$AA@ 100355cc     libvcruntime:winapi_downlevel.obj
 0002:000045e4       ??_C@_0O@BAMBGLIE@EventRegister?$AA@ 100355e4     libvcruntime:winapi_downlevel.obj
 0002:000045f8       ??_C@_0BE@BJEEGHGK@EventSetInformation?$AA@ 100355f8     libvcruntime:winapi_downlevel.obj
 0002:00004610       ??_C@_0BA@FAKLIPIC@EventUnregister?$AA@ 10035610     libvcruntime:winapi_downlevel.obj
 0002:00004624       ??_C@_0BD@PKLHJPHD@EventWriteTransfer?$AA@ 10035624     libvcruntime:winapi_downlevel.obj
 0002:00004660       __Microsoft_CRTProvider    10035660     libvcruntime:telemetry.obj
 0002:00004664       ??_C@_0O@JEOPJOMI@Main?5Invoked?4?$AA@ 10035664     libvcruntime:telemetry.obj
 0002:00004674       ??_C@_0P@NEAEIBDO@Main?5Returned?4?$AA@ 10035674     libvcruntime:telemetry.obj
 0002:00004838       ??_C@_08EHJDFFNH@__based?$CI?$AA@ 10035838     libvcruntime:undname.obj
 0002:00004844       ??_C@_07KOLFKCDI@__cdecl?$AA@ 10035844     libvcruntime:undname.obj
 0002:0000484c       ??_C@_08GHMPAG@__pascal?$AA@ 1003584c     libvcruntime:undname.obj
 0002:00004858       ??_C@_09IFJBGAPI@__stdcall?$AA@ 10035858     libvcruntime:undname.obj
 0002:00004864       ??_C@_0L@NPHFGOKO@__thiscall?$AA@ 10035864     libvcruntime:undname.obj
 0002:00004870       ??_C@_0L@JMKHOMEK@__fastcall?$AA@ 10035870     libvcruntime:undname.obj
 0002:0000487c       ??_C@_0N@BCKKPABJ@__vectorcall?$AA@ 1003587c     libvcruntime:undname.obj
 0002:0000488c       ??_C@_09HIJEGCPM@__clrcall?$AA@ 1003588c     libvcruntime:undname.obj
 0002:00004898       ??_C@_06GHPCKEAG@__eabi?$AA@ 10035898     libvcruntime:undname.obj
 0002:000048a0       ??_C@_07JOMMBBKO@__ptr64?$AA@ 100358a0     libvcruntime:undname.obj
 0002:000048a8       ??_C@_0L@PILCLIHE@__restrict?$AA@ 100358a8     libvcruntime:undname.obj
 0002:000048b4       ??_C@_0M@GFIIJFMG@__unaligned?$AA@ 100358b4     libvcruntime:undname.obj
 0002:000048c0       ??_C@_09DHDLOLLB@restrict?$CI?$AA@ 100358c0     libvcruntime:undname.obj
 0002:000048cc       ??_C@_04NIHEBCM@?5new?$AA@ 100358cc     libvcruntime:undname.obj
 0002:000048d4       ??_C@_07FPCDHGMM@?5delete?$AA@ 100358d4     libvcruntime:undname.obj
 0002:000048dc       ??_C@_02GPIOPFAK@?$DO?$DO?$AA@ 100358dc     libvcruntime:undname.obj
 0002:000048e0       ??_C@_02FODMEDOG@?$DM?$DM?$AA@ 100358e0     libvcruntime:undname.obj
 0002:000048e4       ??_C@_01DCLJPIOD@?$CB?$AA@ 100358e4     libvcruntime:undname.obj
 0002:000048e8       ??_C@_02EGOFBIJA@?$DN?$DN?$AA@ 100358e8     libvcruntime:undname.obj
 0002:000048ec       ??_C@_02FDNJECIE@?$CB?$DN?$AA@ 100358ec     libvcruntime:undname.obj
 0002:000048f0       ??_C@_02GPECMEKF@?$FL?$FN?$AA@ 100358f0     libvcruntime:undname.obj
 0002:000048f4       ??_C@_08LHJFAFGD@operator?$AA@ 100358f4     libvcruntime:undname.obj
 0002:00004900       ??_C@_02HBOOOICD@?9?$DO?$AA@ 10035900     libvcruntime:undname.obj
 0002:00004904       ??_C@_02ECNGHCIF@?$CL?$CL?$AA@ 10035904     libvcruntime:undname.obj
 0002:00004908       ??_C@_02BAABKJLB@?9?9?$AA@ 10035908     libvcruntime:undname.obj
 0002:0000490c       ??_C@_01MIFGBAGJ@?$CL?$AA@ 1003590c     libvcruntime:undname.obj
 0002:00004910       ??_C@_01HNPIGOCE@?$CG?$AA@ 10035910     libvcruntime:undname.obj
 0002:00004914       ??_C@_03MNHNFDLC@?9?$DO?$CK?$AA@ 10035914     libvcruntime:undname.obj
 0002:00004918       ??_C@_01FGNFDNOH@?$CF?$AA@ 10035918     libvcruntime:undname.obj
 0002:0000491c       ??_C@_01MNNFJEPP@?$DM?$AA@ 1003591c     libvcruntime:undname.obj
 0002:00004920       ??_C@_02EHCHHCKH@?$DM?$DN?$AA@ 10035920     libvcruntime:undname.obj
 0002:00004924       ??_C@_01PPODPGHN@?$DO?$AA@ 10035924     libvcruntime:undname.obj
 0002:00004928       ??_C@_02EEKDKGMJ@?$DO?$DN?$AA@ 10035928     libvcruntime:undname.obj
 0002:0000492c       ??_C@_02HCKGKOFO@?$CI?$CJ?$AA@ 1003592c     libvcruntime:undname.obj
 0002:00004930       ??_C@_01PJKLJHI@?$HO?$AA@  10035930     libvcruntime:undname.obj
 0002:00004934       ??_C@_01JKBOJNNK@?$FO?$AA@ 10035934     libvcruntime:undname.obj
 0002:00004938       ??_C@_01DNKMNLPK@?$HM?$AA@ 10035938     libvcruntime:undname.obj
 0002:0000493c       ??_C@_02PPKAJPJL@?$CG?$CG?$AA@ 1003593c     libvcruntime:undname.obj
 0002:00004940       ??_C@_02NONPIBCD@?$HM?$HM?$AA@ 10035940     libvcruntime:undname.obj
 0002:00004944       ??_C@_02FPIMKNGF@?$CK?$DN?$AA@ 10035944     libvcruntime:undname.obj
 0002:00004948       ??_C@_02FOEOMHFC@?$CL?$DN?$AA@ 10035948     libvcruntime:undname.obj
 0002:0000494c       ??_C@_02FKMDLLOA@?9?$DN?$AA@ 1003594c     libvcruntime:undname.obj
 0002:00004950       ??_C@_02FJEHGPIO@?1?$DN?$AA@ 10035950     libvcruntime:undname.obj
 0002:00004954       ??_C@_02FENAOKFI@?$CF?$DN?$AA@ 10035954     libvcruntime:undname.obj
 0002:00004958       ??_C@_03IKFCCPFF@?$DO?$DO?$DN?$AA@ 10035958     libvcruntime:undname.obj
 0002:0000495c       ??_C@_03CDNPDDLA@?$DM?$DM?$DN?$AA@ 1003595c     libvcruntime:undname.obj
 0002:00004960       ??_C@_02FGJGFEAB@?$CG?$DN?$AA@ 10035960     libvcruntime:undname.obj
 0002:00004964       ??_C@_02DHLNPPGH@?$HM?$DN?$AA@ 10035964     libvcruntime:undname.obj
 0002:00004968       ??_C@_02MHEGNOJ@?$FO?$DN?$AA@ 10035968     libvcruntime:undname.obj
 0002:0000496c       ??_C@_09IFPLHPGF@?$GAvftable?8?$AA@ 1003596c     libvcruntime:undname.obj
 0002:00004978       ??_C@_09BLBHBJP@?$GAvbtable?8?$AA@ 10035978     libvcruntime:undname.obj
 0002:00004984       ??_C@_07FEEIOKP@?$GAvcall?8?$AA@ 10035984     libvcruntime:undname.obj
 0002:0000498c       ??_C@_08LLFFHHDJ@?$GAtypeof?8?$AA@ 1003598c     libvcruntime:undname.obj
 0002:00004998       ??_C@_0BF@KDPPACIK@?$GAlocal?5static?5guard?8?$AA@ 10035998     libvcruntime:undname.obj
 0002:000049b0       ??_C@_08OBABFOLI@?$GAstring?8?$AA@ 100359b0     libvcruntime:undname.obj
 0002:000049bc       ??_C@_0BD@JDLKDPAB@?$GAvbase?5destructor?8?$AA@ 100359bc     libvcruntime:undname.obj
 0002:000049d0       ??_C@_0BN@DEGPLNFK@?$GAvector?5deleting?5destructor?8?$AA@ 100359d0     libvcruntime:undname.obj
 0002:000049f0       ??_C@_0BO@OBMKPJIG@?$GAdefault?5constructor?5closure?8?$AA@ 100359f0     libvcruntime:undname.obj
 0002:00004a10       ??_C@_0BN@IMDCHIKM@?$GAscalar?5deleting?5destructor?8?$AA@ 10035a10     libvcruntime:undname.obj
 0002:00004a30       ??_C@_0BO@PFGOCPJJ@?$GAvector?5constructor?5iterator?8?$AA@ 10035a30     libvcruntime:undname.obj
 0002:00004a50       ??_C@_0BN@LFPFMEDL@?$GAvector?5destructor?5iterator?8?$AA@ 10035a50     libvcruntime:undname.obj
 0002:00004a70       ??_C@_0CE@IKBNEHA@?$GAvector?5vbase?5constructor?5iterat@ 10035a70     libvcruntime:undname.obj
 0002:00004a94       ??_C@_0BL@NILFHHPC@?$GAvirtual?5displacement?5map?8?$AA@ 10035a94     libvcruntime:undname.obj
 0002:00004ab0       ??_C@_0CB@JONCMFFK@?$GAeh?5vector?5constructor?5iterator?8@ 10035ab0     libvcruntime:undname.obj
 0002:00004ad4       ??_C@_0CA@GCEOPDGL@?$GAeh?5vector?5destructor?5iterator?8?$AA@ 10035ad4     libvcruntime:undname.obj
 0002:00004af4       ??_C@_0CH@OOJPLCPH@?$GAeh?5vector?5vbase?5constructor?5ite@ 10035af4     libvcruntime:undname.obj
 0002:00004b1c       ??_C@_0BL@LLKPOHJI@?$GAcopy?5constructor?5closure?8?$AA@ 10035b1c     libvcruntime:undname.obj
 0002:00004b38       ??_C@_0BA@KBCDOMBN@?$GAudt?5returning?8?$AA@ 10035b38     libvcruntime:undname.obj
 0002:00004b48       ??_C@_03KLGMFNMG@?$GAEH?$AA@ 10035b48     libvcruntime:undname.obj
 0002:00004b4c       ??_C@_05KHLCHHI@?$GARTTI?$AA@ 10035b4c     libvcruntime:undname.obj
 0002:00004b54       ??_C@_0BA@KKLDJDLB@?$GAlocal?5vftable?8?$AA@ 10035b54     libvcruntime:undname.obj
 0002:00004b64       ??_C@_0CE@IIHCMGGL@?$GAlocal?5vftable?5constructor?5closu@ 10035b64     libvcruntime:undname.obj
 0002:00004b88       ??_C@_06FHBGPFGH@?5new?$FL?$FN?$AA@ 10035b88     libvcruntime:undname.obj
 0002:00004b90       ??_C@_09LBNFPBCA@?5delete?$FL?$FN?$AA@ 10035b90     libvcruntime:undname.obj
 0002:00004b9c       ??_C@_0P@HJKNJFNN@?$GAomni?5callsig?8?$AA@ 10035b9c     libvcruntime:undname.obj
 0002:00004bac       ??_C@_0BL@CNOONJFP@?$GAplacement?5delete?5closure?8?$AA@ 10035bac     libvcruntime:undname.obj
 0002:00004bc8       ??_C@_0BN@CKNJLHMB@?$GAplacement?5delete?$FL?$FN?5closure?8?$AA@ 10035bc8     libvcruntime:undname.obj
 0002:00004be8       ??_C@_0CG@CFDHKGGD@?$GAmanaged?5vector?5constructor?5iter@ 10035be8     libvcruntime:undname.obj
 0002:00004c10       ??_C@_0CF@IMGKMJNO@?$GAmanaged?5vector?5destructor?5itera@ 10035c10     libvcruntime:undname.obj
 0002:00004c38       ??_C@_0CG@HLDDJMAG@?$GAeh?5vector?5copy?5constructor?5iter@ 10035c38     libvcruntime:undname.obj
 0002:00004c60       ??_C@_0CM@FCBBDIGB@?$GAeh?5vector?5vbase?5copy?5constructo@ 10035c60     libvcruntime:undname.obj
 0002:00004c8c       ??_C@_0BL@CLIPGLGB@?$GAdynamic?5initializer?5for?5?8?$AA@ 10035c8c     libvcruntime:undname.obj
 0002:00004ca8       ??_C@_0CB@PDBIFEP@?$GAdynamic?5atexit?5destructor?5for?5?8@ 10035ca8     libvcruntime:undname.obj
 0002:00004ccc       ??_C@_0CD@CGAJBKEJ@?$GAvector?5copy?5constructor?5iterato@ 10035ccc     libvcruntime:undname.obj
 0002:00004cf0       ??_C@_0CJ@GJELGAMM@?$GAvector?5vbase?5copy?5constructor?5i@ 10035cf0     libvcruntime:undname.obj
 0002:00004d1c       ??_C@_0CL@FGIJHLCE@?$GAmanaged?5vector?5copy?5constructor@ 10035d1c     libvcruntime:undname.obj
 0002:00004d48       ??_C@_0BM@PMGGMLDN@?$GAlocal?5static?5thread?5guard?8?$AA@ 10035d48     libvcruntime:undname.obj
 0002:00004d64       ??_C@_0N@BDNMDMOL@operator?5?$CC?$CC?5?$AA@ 10035d64     libvcruntime:undname.obj
 0002:00004d74       ??_C@_0BC@DAFEJGAK@?5Type?5Descriptor?8?$AA@ 10035d74     libvcruntime:undname.obj
 0002:00004d88       ??_C@_0BM@LDKODKLH@?5Base?5Class?5Descriptor?5at?5?$CI?$AA@ 10035d88     libvcruntime:undname.obj
 0002:00004da4       ??_C@_0BD@LGICGFMM@?5Base?5Class?5Array?8?$AA@ 10035da4     libvcruntime:undname.obj
 0002:00004db8       ??_C@_0BN@MECKDCOJ@?5Class?5Hierarchy?5Descriptor?8?$AA@ 10035db8     libvcruntime:undname.obj
 0002:00004dd8       ??_C@_0BK@CFCOFLF@?5Complete?5Object?5Locator?8?$AA@ 10035dd8     libvcruntime:undname.obj
 0002:00004df8       _standard_lookup_table     10035df8     libucrt:output.obj
 0002:00004e54       ??_C@_06OJHGLDPL@?$CInull?$CJ?$AA@ 10035e54     libucrt:output.obj
 0002:00004e5c       ??_C@_1O@CEDCILHN@?$AA?$CI?$AAn?$AAu?$AAl?$AAl?$AA?$CJ?$AA?$AA@ 10035e5c     libucrt:output.obj
 0002:00004e70       ?large_power_data@?1??multiply_by_power_of_ten@__crt_strtox@@YA_NAAUbig_integer@2@I@Z@4QBIB 10035e70     libucrt:atof.obj
 0002:00005778       ?large_power_indices@?1??multiply_by_power_of_ten@__crt_strtox@@YA_NAAUbig_integer@2@I@Z@4QBUunpack_index@?1??12@YA_N0I@Z@B 10036778     libucrt:atof.obj
 0002:00005810       ?small_powers_of_ten@?6??multiply_by_power_of_ten@__crt_strtox@@YA_NAAUbig_integer@2@I@Z@4QBIB 10036810     libucrt:atof.obj
 0002:00005838       ??_C@_1GE@DPGDJKLM@?$AAm?$AAi?$AAn?$AAk?$AAe?$AAr?$AAn?$AAe?$AAl?$AA?2?$AAc?$AAr?$AAt?$AAs?$AA?2?$AAu?$AAc?$AAr?$AAt?$AA?2?$AAi?$AAn?$AAc?$AA?2?$AAc?$AAo?$AAr?$AAe?$AAc?$AAr?$AAt?$AA_@ 10036838     libucrt:atof.obj
 0002:000058a0       ??_C@_1FM@FELNCOBF@?$AA_?$AA_?$AAc?$AAr?$AAt?$AA_?$AAs?$AAt?$AAr?$AAt?$AAo?$AAx?$AA?3?$AA?3?$AAf?$AAl?$AAo?$AAa?$AAt?$AAi?$AAn?$AAg?$AA_?$AAp?$AAo?$AAi?$AAn?$AAt?$AA_?$AAv?$AAa?$AAl@ 100368a0     libucrt:atof.obj
 0002:000058fc       ??_C@_1BG@GEMHBGAF@?$AA_?$AAi?$AAs?$AA_?$AAd?$AAo?$AAu?$AAb?$AAl?$AAe?$AA?$AA@ 100368fc     libucrt:atof.obj
 0002:00005918       ??_C@_1FK@JOJELFFO@?$AA_?$AA_?$AAc?$AAr?$AAt?$AA_?$AAs?$AAt?$AAr?$AAt?$AAo?$AAx?$AA?3?$AA?3?$AAf?$AAl?$AAo?$AAa?$AAt?$AAi?$AAn?$AAg?$AA_?$AAp?$AAo?$AAi?$AAn?$AAt?$AA_?$AAv?$AAa?$AAl@ 10036918     libucrt:atof.obj
 0002:00005974       ??_C@_1BI@BANMPGJI@?$AA?$CB?$AA_?$AAi?$AAs?$AA_?$AAd?$AAo?$AAu?$AAb?$AAl?$AAe?$AA?$AA@ 10036974     libucrt:atof.obj
 0002:0000598c       ?inf_uppercase@?2???$parse_floating_point_possible_infinity@DV?$c_string_character_source@D@__crt_strtox@@PBD@__crt_strtox@@YA?AW4floating_point_parse_result@1@AADAAV?$c_string_character_source@D@1@PBD@Z@4QBDB 1003698c     libucrt:atof.obj
 0002:00005990       ?inf_lowercase@?2???$parse_floating_point_possible_infinity@DV?$c_string_character_source@D@__crt_strtox@@PBD@__crt_strtox@@YA?AW4floating_point_parse_result@1@AADAAV?$c_string_character_source@D@1@PBD@Z@4QBDB 10036990     libucrt:atof.obj
 0002:00005994       ?inity_uppercase@?5???$parse_floating_point_possible_infinity@DV?$c_string_character_source@D@__crt_strtox@@PBD@__crt_strtox@@YA?AW4floating_point_parse_result@1@AADAAV?$c_string_character_source@D@1@PBD@Z@4QBDB 10036994     libucrt:atof.obj
 0002:0000599c       ?inity_lowercase@?5???$parse_floating_point_possible_infinity@DV?$c_string_character_source@D@__crt_strtox@@PBD@__crt_strtox@@YA?AW4floating_point_parse_result@1@AADAAV?$c_string_character_source@D@1@PBD@Z@4QBDB 1003699c     libucrt:atof.obj
 0002:000059a4       ?uppercase@?2???$parse_floating_point_possible_nan@DV?$c_string_character_source@D@__crt_strtox@@PBD@__crt_strtox@@YA?AW4floating_point_parse_result@1@AADAAV?$c_string_character_source@D@1@PBD@Z@4QBDB 100369a4     libucrt:atof.obj
 0002:000059a8       ?lowercase@?2???$parse_floating_point_possible_nan@DV?$c_string_character_source@D@__crt_strtox@@PBD@__crt_strtox@@YA?AW4floating_point_parse_result@1@AADAAV?$c_string_character_source@D@1@PBD@Z@4QBDB 100369a8     libucrt:atof.obj
 0002:000059ac       ?uppercase@?1???$parse_floating_point_possible_nan_is_snan@DV?$c_string_character_source@D@__crt_strtox@@@__crt_strtox@@YA_NAADAAV?$c_string_character_source@D@1@@Z@4QBDB 100369ac     libucrt:atof.obj
 0002:000059b4       ?lowercase@?1???$parse_floating_point_possible_nan_is_snan@DV?$c_string_character_source@D@__crt_strtox@@@__crt_strtox@@YA_NAADAAV?$c_string_character_source@D@1@@Z@4QBDB 100369b4     libucrt:atof.obj
 0002:000059bc       ?uppercase@?1???$parse_floating_point_possible_nan_is_ind@DV?$c_string_character_source@D@__crt_strtox@@@__crt_strtox@@YA_NAADAAV?$c_string_character_source@D@1@@Z@4QBDB 100369bc     libucrt:atof.obj
 0002:000059c0       ?lowercase@?1???$parse_floating_point_possible_nan_is_ind@DV?$c_string_character_source@D@__crt_strtox@@@__crt_strtox@@YA_NAADAAV?$c_string_character_source@D@1@@Z@4QBDB 100369c0     libucrt:atof.obj
 0002:00005b30       ___acrt_exception_action_table 10036b30     libucrt:exception_filter.obj
 0002:00005bc0       ___acrt_signal_action_table_count 10036bc0     libucrt:exception_filter.obj
 0002:00005bc4       ___acrt_signal_action_first_fpe_index 10036bc4     libucrt:exception_filter.obj
 0002:00005bc8       ___acrt_signal_action_fpe_count 10036bc8     libucrt:exception_filter.obj
 0002:00005bcc       ??_C@_1BI@BGOHAHKC@?$AAm?$AAs?$AAc?$AAo?$AAr?$AAe?$AAe?$AA?4?$AAd?$AAl?$AAl?$AA?$AA@ 10036bcc     libucrt:exit.obj
 0002:00005be4       ??_C@_0P@MIGLKIOC@CorExitProcess?$AA@ 10036be4     libucrt:exit.obj
 0002:00005c70       __wctype                   10036c70     libucrt:ctype.obj
 0002:00005e78       ___newctype                10036e78     libucrt:ctype.obj
 0002:00006178       ___newclmap                10037178     libucrt:ctype.obj
 0002:000062f8       ___newcumap                100372f8     libucrt:ctype.obj
 0002:00006488       ??_C@_03OEIAHPBN@INF?$AA@  10037488     libucrt:cvt.obj
 0002:0000648c       ??_C@_03OJHLLCGB@inf?$AA@  1003748c     libucrt:cvt.obj
 0002:00006490       ??_C@_03LKNCIKJB@NAN?$AA@  10037490     libucrt:cvt.obj
 0002:00006494       ??_C@_03LHCJEHON@nan?$AA@  10037494     libucrt:cvt.obj
 0002:00006498       ??_C@_09OFJJIMPC@NAN?$CISNAN?$CJ?$AA@ 10037498     libucrt:cvt.obj
 0002:000064a4       ??_C@_09IPFBKMDL@nan?$CIsnan?$CJ?$AA@ 100374a4     libucrt:cvt.obj
 0002:000064b0       ??_C@_08IKHNHAJ@NAN?$CIIND?$CJ?$AA@ 100374b0     libucrt:cvt.obj
 0002:000064bc       ??_C@_08OFCDMILK@nan?$CIind?$CJ?$AA@ 100374bc     libucrt:cvt.obj
 0002:000064c8       ??_C@_05KLBDPFGC@e?$CL000?$AA@ 100374c8     libucrt:cvt.obj
 0002:000064d0       ___lc_category             100374d0     libucrt:wsetlocale.obj
 0002:00006518       ??_C@_1O@GIFLHMA@?$AAL?$AAC?$AA_?$AAA?$AAL?$AAL?$AA?$AA@ 10037518     libucrt:wsetlocale.obj
 0002:00006528       ??_C@_1BG@PPOMIBNJ@?$AAL?$AAC?$AA_?$AAC?$AAO?$AAL?$AAL?$AAA?$AAT?$AAE?$AA?$AA@ 10037528     libucrt:wsetlocale.obj
 0002:00006540       ??_C@_1BC@FFJGAPJM@?$AAL?$AAC?$AA_?$AAC?$AAT?$AAY?$AAP?$AAE?$AA?$AA@ 10037540     libucrt:wsetlocale.obj
 0002:00006554       ??_C@_1BI@PCKFNJFB@?$AAL?$AAC?$AA_?$AAM?$AAO?$AAN?$AAE?$AAT?$AAA?$AAR?$AAY?$AA?$AA@ 10037554     libucrt:wsetlocale.obj
 0002:0000656c       ??_C@_1BG@ENIEDKID@?$AAL?$AAC?$AA_?$AAN?$AAU?$AAM?$AAE?$AAR?$AAI?$AAC?$AA?$AA@ 1003756c     libucrt:wsetlocale.obj
 0002:00006584       ??_C@_1BA@HAAOMIIG@?$AAL?$AAC?$AA_?$AAT?$AAI?$AAM?$AAE?$AA?$AA@ 10037584     libucrt:wsetlocale.obj
 0002:00006618       ??_C@_15NBPDDFIP@?$AA?$DN?$AA?$DL?$AA?$AA@ 10037618     libucrt:wsetlocale.obj
 0002:00006620       ??_C@_13PJJBFPED@?$AA?$DL?$AA?$AA@ 10037620     libucrt:wsetlocale.obj
 0002:00006624       ??_C@_13NMPKAAJP@?$AA?$DN?$AA?$AA@ 10037624     libucrt:wsetlocale.obj
 0002:00006628       ??_C@_13FHBKNHDA@?$AAC?$AA?$AA@ 10037628     libucrt:wsetlocale.obj
 0002:0000662c       ??_C@_17MBJJLFDM@?$AA_?$AA?4?$AA?0?$AA?$AA@ 1003762c     libucrt:wsetlocale.obj
 0002:00006634       ??_C@_13ENNFDPBH@?$AA_?$AA?$AA@ 10037634     libucrt:wsetlocale.obj
 0002:00006638       ??_C@_13JOFGPIOO@?$AA?4?$AA?$AA@ 10037638     libucrt:wsetlocale.obj
 0002:0000663c       ??_C@_03KOEHGMDN@Sun?$AA@  1003763c     libucrt:nlsdata.obj
 0002:00006640       ??_C@_03PDAGKDH@Mon?$AA@   10037640     libucrt:nlsdata.obj
 0002:00006644       ??_C@_03NAGEINEP@Tue?$AA@  10037644     libucrt:nlsdata.obj
 0002:00006648       ??_C@_03MHOMLAJA@Wed?$AA@  10037648     libucrt:nlsdata.obj
 0002:0000664c       ??_C@_03IOFIKPDN@Thu?$AA@  1003764c     libucrt:nlsdata.obj
 0002:00006650       ??_C@_03IDIOELNC@Fri?$AA@  10037650     libucrt:nlsdata.obj
 0002:00006654       ??_C@_03FEFJNEK@Sat?$AA@   10037654     libucrt:nlsdata.obj
 0002:00006658       ??_C@_06OOPIFAJ@Sunday?$AA@ 10037658     libucrt:nlsdata.obj
 0002:00006660       ??_C@_06JLEDEDGH@Monday?$AA@ 10037660     libucrt:nlsdata.obj
 0002:00006668       ??_C@_07BAAGCFCM@Tuesday?$AA@ 10037668     libucrt:nlsdata.obj
 0002:00006670       ??_C@_09DLIGFAKA@Wednesday?$AA@ 10037670     libucrt:nlsdata.obj
 0002:0000667c       ??_C@_08HACCIKIA@Thursday?$AA@ 1003767c     libucrt:nlsdata.obj
 0002:00006688       ??_C@_06JECMNKMI@Friday?$AA@ 10037688     libucrt:nlsdata.obj
 0002:00006690       ??_C@_08INBOOONO@Saturday?$AA@ 10037690     libucrt:nlsdata.obj
 0002:0000669c       ??_C@_03JIHJHPIE@Jan?$AA@  1003769c     libucrt:nlsdata.obj
 0002:000066a0       ??_C@_03HJBDCHOM@Feb?$AA@  100376a0     libucrt:nlsdata.obj
 0002:000066a4       ??_C@_03ODNJBKGA@Mar?$AA@  100376a4     libucrt:nlsdata.obj
 0002:000066a8       ??_C@_03LEOLGMJP@Apr?$AA@  100376a8     libucrt:nlsdata.obj
 0002:000066ac       ??_C@_03CNMDKL@May?$AA@    100376ac     libucrt:nlsdata.obj
 0002:000066b0       ??_C@_03IDFGHECI@Jun?$AA@  100376b0     libucrt:nlsdata.obj
 0002:000066b4       ??_C@_03LBGABGKK@Jul?$AA@  100376b4     libucrt:nlsdata.obj
 0002:000066b8       ??_C@_03IFJFEIGA@Aug?$AA@  100376b8     libucrt:nlsdata.obj
 0002:000066bc       ??_C@_03GGCAPAJC@Sep?$AA@  100376bc     libucrt:nlsdata.obj
 0002:000066c0       ??_C@_03BMAOKBAD@Oct?$AA@  100376c0     libucrt:nlsdata.obj
 0002:000066c4       ??_C@_03JPJOFNIA@Nov?$AA@  100376c4     libucrt:nlsdata.obj
 0002:000066c8       ??_C@_03MKABNOCG@Dec?$AA@  100376c8     libucrt:nlsdata.obj
 0002:000066cc       ??_C@_07CGJPFGJA@January?$AA@ 100376cc     libucrt:nlsdata.obj
 0002:000066d4       ??_C@_08GNJGEPFN@February?$AA@ 100376d4     libucrt:nlsdata.obj
 0002:000066e0       ??_C@_05HPCKOFNC@March?$AA@ 100376e0     libucrt:nlsdata.obj
 0002:000066e8       ??_C@_05DMJDNLEJ@April?$AA@ 100376e8     libucrt:nlsdata.obj
 0002:000066f0       ??_C@_04CNLMGBGM@June?$AA@ 100376f0     libucrt:nlsdata.obj
 0002:000066f8       ??_C@_04MIEPOIFP@July?$AA@ 100376f8     libucrt:nlsdata.obj
 0002:00006700       ??_C@_06LBBHFDDG@August?$AA@ 10037700     libucrt:nlsdata.obj
 0002:00006708       ??_C@_09BHHEALKD@September?$AA@ 10037708     libucrt:nlsdata.obj
 0002:00006714       ??_C@_07JJNFCEND@October?$AA@ 10037714     libucrt:nlsdata.obj
 0002:0000671c       ??_C@_08HCHEGEOA@November?$AA@ 1003771c     libucrt:nlsdata.obj
 0002:00006728       ??_C@_08EDHMEBNP@December?$AA@ 10037728     libucrt:nlsdata.obj
 0002:00006734       ??_C@_02DEDBPAFC@AM?$AA@   10037734     libucrt:nlsdata.obj
 0002:00006738       ??_C@_02CJNFDJBF@PM?$AA@   10037738     libucrt:nlsdata.obj
 0002:0000673c       ??_C@_08BPBNCDIB@MM?1dd?1yy?$AA@ 1003773c     libucrt:nlsdata.obj
 0002:00006748       ??_C@_0BE@CKGJFCPC@dddd?0?5MMMM?5dd?0?5yyyy?$AA@ 10037748     libucrt:nlsdata.obj
 0002:0000675c       ??_C@_08JCCMCCIL@HH?3mm?3ss?$AA@ 1003775c     libucrt:nlsdata.obj
 0002:00006768       ??_C@_17MBGCMIPB@?$AAS?$AAu?$AAn?$AA?$AA@ 10037768     libucrt:nlsdata.obj
 0002:00006770       ??_C@_17KBOMKBF@?$AAM?$AAo?$AAn?$AA?$AA@ 10037770     libucrt:nlsdata.obj
 0002:00006778       ??_C@_17BMKGEGOJ@?$AAT?$AAu?$AAe?$AA?$AA@ 10037778     libucrt:nlsdata.obj
 0002:00006780       ??_C@_17CJEDCEPE@?$AAW?$AAe?$AAd?$AA?$AA@ 10037780     libucrt:nlsdata.obj
 0002:00006788       ??_C@_17PDPHAADD@?$AAT?$AAh?$AAu?$AA?$AA@ 10037788     libucrt:nlsdata.obj
 0002:00006790       ??_C@_17HFOLPPLP@?$AAF?$AAr?$AAi?$AA?$AA@ 10037790     libucrt:nlsdata.obj
 0002:00006798       ??_C@_17GGIBDPIH@?$AAS?$AAa?$AAt?$AA?$AA@ 10037798     libucrt:nlsdata.obj
 0002:000067a0       ??_C@_1O@IHNHDHPB@?$AAS?$AAu?$AAn?$AAd?$AAa?$AAy?$AA?$AA@ 100377a0     libucrt:nlsdata.obj
 0002:000067b0       ??_C@_1O@MMNBFLIA@?$AAM?$AAo?$AAn?$AAd?$AAa?$AAy?$AA?$AA@ 100377b0     libucrt:nlsdata.obj
 0002:000067c0       ??_C@_1BA@ENFBFFEK@?$AAT?$AAu?$AAe?$AAs?$AAd?$AAa?$AAy?$AA?$AA@ 100377c0     libucrt:nlsdata.obj
 0002:000067d0       ??_C@_1BE@EBOGMDOH@?$AAW?$AAe?$AAd?$AAn?$AAe?$AAs?$AAd?$AAa?$AAy?$AA?$AA@ 100377d0     libucrt:nlsdata.obj
 0002:000067e4       ??_C@_1BC@HHMNLIHE@?$AAT?$AAh?$AAu?$AAr?$AAs?$AAd?$AAa?$AAy?$AA?$AA@ 100377e4     libucrt:nlsdata.obj
 0002:000067f8       ??_C@_1O@PDICJHAG@?$AAF?$AAr?$AAi?$AAd?$AAa?$AAy?$AA?$AA@ 100377f8     libucrt:nlsdata.obj
 0002:00006808       ??_C@_1BC@ENMNNPAJ@?$AAS?$AAa?$AAt?$AAu?$AAr?$AAd?$AAa?$AAy?$AA?$AA@ 10037808     libucrt:nlsdata.obj
 0002:0000681c       ??_C@_17DKNBKCHM@?$AAJ?$AAa?$AAn?$AA?$AA@ 1003781c     libucrt:nlsdata.obj
 0002:00006824       ??_C@_17LMDJEKJN@?$AAF?$AAe?$AAb?$AA?$AA@ 10037824     libucrt:nlsdata.obj
 0002:0000682c       ??_C@_17CKNLEDEC@?$AAM?$AAa?$AAr?$AA?$AA@ 1003782c     libucrt:nlsdata.obj
 0002:00006834       ??_C@_17LFPOIHDD@?$AAA?$AAp?$AAr?$AA?$AA@ 10037834     libucrt:nlsdata.obj
 0002:0000683c       ??_C@_17PNNKMEED@?$AAM?$AAa?$AAy?$AA?$AA@ 1003783c     libucrt:nlsdata.obj
 0002:00006844       ??_C@_17KCJGOCPB@?$AAJ?$AAu?$AAn?$AA?$AA@ 10037844     libucrt:nlsdata.obj
 0002:0000684c       ??_C@_17IJPCKHK@?$AAJ?$AAu?$AAl?$AA?$AA@ 1003784c     libucrt:nlsdata.obj
 0002:00006854       ??_C@_17ICPELBCN@?$AAA?$AAu?$AAg?$AA?$AA@ 10037854     libucrt:nlsdata.obj
 0002:0000685c       ??_C@_17HCHCOKMG@?$AAS?$AAe?$AAp?$AA?$AA@ 1003785c     libucrt:nlsdata.obj
 0002:00006864       ??_C@_17FNLKOI@?$AAO?$AAc?$AAt?$AA?$AA@ 10037864     libucrt:nlsdata.obj
 0002:0000686c       ??_C@_17BBDMLCIG@?$AAN?$AAo?$AAv?$AA?$AA@ 1003786c     libucrt:nlsdata.obj
 0002:00006874       ??_C@_17EGKACKIF@?$AAD?$AAe?$AAc?$AA?$AA@ 10037874     libucrt:nlsdata.obj
 0002:0000687c       ??_C@_1BA@EFMEIEBA@?$AAJ?$AAa?$AAn?$AAu?$AAa?$AAr?$AAy?$AA?$AA@ 1003787c     libucrt:nlsdata.obj
 0002:0000688c       ??_C@_1BC@JGDDFFAM@?$AAF?$AAe?$AAb?$AAr?$AAu?$AAa?$AAr?$AAy?$AA?$AA@ 1003788c     libucrt:nlsdata.obj
 0002:000068a0       ??_C@_1M@IKEENEDF@?$AAM?$AAa?$AAr?$AAc?$AAh?$AA?$AA@ 100378a0     libucrt:nlsdata.obj
 0002:000068ac       ??_C@_1M@GJNLMHFD@?$AAA?$AAp?$AAr?$AAi?$AAl?$AA?$AA@ 100378ac     libucrt:nlsdata.obj
 0002:000068b8       ??_C@_19EPFLPGAP@?$AAJ?$AAu?$AAn?$AAe?$AA?$AA@ 100378b8     libucrt:nlsdata.obj
 0002:000068c4       ??_C@_19BIFMLPCD@?$AAJ?$AAu?$AAl?$AAy?$AA?$AA@ 100378c4     libucrt:nlsdata.obj
 0002:000068d0       ??_C@_1O@PAHLKOAC@?$AAA?$AAu?$AAg?$AAu?$AAs?$AAt?$AA?$AA@ 100378d0     libucrt:nlsdata.obj
 0002:000068e0       ??_C@_1BE@DKAAMBJL@?$AAS?$AAe?$AAp?$AAt?$AAe?$AAm?$AAb?$AAe?$AAr?$AA?$AA@ 100378e0     libucrt:nlsdata.obj
 0002:000068f4       ??_C@_1BA@EPANDLNG@?$AAO?$AAc?$AAt?$AAo?$AAb?$AAe?$AAr?$AA?$AA@ 100378f4     libucrt:nlsdata.obj
 0002:00006904       ??_C@_1BC@BGLIFPF@?$AAN?$AAo?$AAv?$AAe?$AAm?$AAb?$AAe?$AAr?$AA?$AA@ 10037904     libucrt:nlsdata.obj
 0002:00006918       ??_C@_1BC@FEMKIFH@?$AAD?$AAe?$AAc?$AAe?$AAm?$AAb?$AAe?$AAr?$AA?$AA@ 10037918     libucrt:nlsdata.obj
 0002:0000692c       ??_C@_15ODEHAHHF@?$AAA?$AAM?$AA?$AA@ 1003792c     libucrt:nlsdata.obj
 0002:00006934       ??_C@_15CLMNNGEL@?$AAP?$AAM?$AA?$AA@ 10037934     libucrt:nlsdata.obj
 0002:0000693c       ??_C@_1BC@IEBCMHCM@?$AAM?$AAM?$AA?1?$AAd?$AAd?$AA?1?$AAy?$AAy?$AA?$AA@ 1003793c     libucrt:nlsdata.obj
 0002:00006950       ??_C@_1CI@KNAKOEBC@?$AAd?$AAd?$AAd?$AAd?$AA?0?$AA?5?$AAM?$AAM?$AAM?$AAM?$AA?5?$AAd?$AAd?$AA?0?$AA?5?$AAy?$AAy?$AAy?$AAy?$AA?$AA@ 10037950     libucrt:nlsdata.obj
 0002:00006978       ??_C@_1BC@GDGBMEMK@?$AAH?$AAH?$AA?3?$AAm?$AAm?$AA?3?$AAs?$AAs?$AA?$AA@ 10037978     libucrt:nlsdata.obj
 0002:00006990       ___lc_time_c               10037990     libucrt:nlsdata.obj
 0002:00006af8       __d_inf                    10037af8     libucrt:util.obj
 0002:00006b00       __d_max                    10037b00     libucrt:util.obj
 0002:00006b08       __d_mzero                  10037b08     libucrt:util.obj
 0002:00006b10       ??_C@_04FJHINJAO@tanh?$AA@ 10037b10     libucrt:fpexcept.obj
 0002:00006b18       ??_C@_04FIHNOPOL@asin?$AA@ 10037b18     libucrt:fpexcept.obj
 0002:00006b20       ??_C@_04PDIFKINK@acos?$AA@ 10037b20     libucrt:fpexcept.obj
 0002:00006b28       ??_C@_04MLLJIGOK@atan?$AA@ 10037b28     libucrt:fpexcept.obj
 0002:00006b30       ??_C@_05KNGEOGJB@atan2?$AA@ 10037b30     libucrt:fpexcept.obj
 0002:00006b38       ??_C@_04EIAKFFMI@sqrt?$AA@ 10037b38     libucrt:fpexcept.obj
 0002:00006b40       ??_C@_03BLEJJJBH@sin?$AA@  10037b40     libucrt:fpexcept.obj
 0002:00006b44       ??_C@_03LALBNOCG@cos?$AA@  10037b44     libucrt:fpexcept.obj
 0002:00006b48       ??_C@_03IIINPABG@tan?$AA@  10037b48     libucrt:fpexcept.obj
 0002:00006b4c       ??_C@_04GFPJNGEK@ceil?$AA@ 10037b4c     libucrt:fpexcept.obj
 0002:00006b54       ??_C@_05PBJFFIGL@floor?$AA@ 10037b54     libucrt:fpexcept.obj
 0002:00006b5c       ??_C@_04ODHECPBC@fabs?$AA@ 10037b5c     libucrt:fpexcept.obj
 0002:00006b64       ??_C@_04EHEDPDJG@modf?$AA@ 10037b64     libucrt:fpexcept.obj
 0002:00006b6c       ??_C@_05CEJMAHNP@ldexp?$AA@ 10037b6c     libucrt:fpexcept.obj
 0002:00006b74       ??_C@_05KBKMEMPO@_cabs?$AA@ 10037b74     libucrt:fpexcept.obj
 0002:00006b7c       ??_C@_06MEIMCGCF@_hypot?$AA@ 10037b7c     libucrt:fpexcept.obj
 0002:00006b84       ??_C@_04KEPJIHGP@fmod?$AA@ 10037b84     libucrt:fpexcept.obj
 0002:00006b8c       ??_C@_05GKKHEGJL@frexp?$AA@ 10037b8c     libucrt:fpexcept.obj
 0002:00006b94       ??_C@_03MJLDFKDL@_y0?$AA@  10037b94     libucrt:fpexcept.obj
 0002:00006b98       ??_C@_03NAKIGLHK@_y1?$AA@  10037b98     libucrt:fpexcept.obj
 0002:00006b9c       ??_C@_03ONILCKOB@_yn?$AA@  10037b9c     libucrt:fpexcept.obj
 0002:00006ba0       ??_C@_05JGDBENOH@_logb?$AA@ 10037ba0     libucrt:fpexcept.obj
 0002:00006ba8       ??_C@_0L@KDOEJCKC@_nextafter?$AA@ 10037ba8     libucrt:fpexcept.obj
 0002:00006ca0       ??_C@_03KHJOGHMM@exp?$AA@  10037ca0     libucrt:fpexcept.obj
 0002:00006ca4       ??_C@_03JGHBODFD@pow?$AA@  10037ca4     libucrt:fpexcept.obj
 0002:00006ca8       ??_C@_03MGHMBJCF@log?$AA@  10037ca8     libucrt:fpexcept.obj
 0002:00006cac       ??_C@_05HGHHAHAP@log10?$AA@ 10037cac     libucrt:fpexcept.obj
 0002:00006cb4       ??_C@_04COOMCNPB@sinh?$AA@ 10037cb4     libucrt:fpexcept.obj
 0002:00006cbc       ??_C@_04HPJJNFIM@cosh?$AA@ 10037cbc     libucrt:fpexcept.obj
 0002:00006d30       ??_C@_1EG@CNNIPFIM@?$AAa?$AAp?$AAi?$AA?9?$AAm?$AAs?$AA?9?$AAw?$AAi?$AAn?$AA?9?$AAa?$AAp?$AAp?$AAm?$AAo?$AAd?$AAe?$AAl?$AA?9?$AAr?$AAu?$AAn?$AAt?$AAi?$AAm?$AAe?$AA?9?$AAl?$AA1?$AA?9?$AA1@ 10037d30     libucrt:winapi_thunks.obj
 0002:00006d78       ??_C@_1EA@JGEFHKEI@?$AAa?$AAp?$AAi?$AA?9?$AAm?$AAs?$AA?9?$AAw?$AAi?$AAn?$AA?9?$AAc?$AAo?$AAr?$AAe?$AA?9?$AAd?$AAa?$AAt?$AAe?$AAt?$AAi?$AAm?$AAe?$AA?9?$AAl?$AA1?$AA?9?$AA1?$AA?9?$AA1?$AA?$AA@ 10037d78     libucrt:winapi_thunks.obj
 0002:00006db8       ??_C@_1DI@GCIAAENM@?$AAa?$AAp?$AAi?$AA?9?$AAm?$AAs?$AA?9?$AAw?$AAi?$AAn?$AA?9?$AAc?$AAo?$AAr?$AAe?$AA?9?$AAf?$AAi?$AAl?$AAe?$AA?9?$AAl?$AA2?$AA?9?$AA1?$AA?9?$AA1?$AA?$AA@ 10037db8     libucrt:winapi_thunks.obj
 0002:00006df0       ??_C@_1EI@MPIAOHOC@?$AAa?$AAp?$AAi?$AA?9?$AAm?$AAs?$AA?9?$AAw?$AAi?$AAn?$AA?9?$AAc?$AAo?$AAr?$AAe?$AA?9?$AAl?$AAo?$AAc?$AAa?$AAl?$AAi?$AAz?$AAa?$AAt?$AAi?$AAo?$AAn?$AA?9?$AAl?$AA1?$AA?9@ 10037df0     libucrt:winapi_thunks.obj
 0002:00006e38       ??_C@_1FK@FPHCKFIE@?$AAa?$AAp?$AAi?$AA?9?$AAm?$AAs?$AA?9?$AAw?$AAi?$AAn?$AA?9?$AAc?$AAo?$AAr?$AAe?$AA?9?$AAl?$AAo?$AAc?$AAa?$AAl?$AAi?$AAz?$AAa?$AAt?$AAi?$AAo?$AAn?$AA?9?$AAo?$AAb?$AAs@ 10037e38     libucrt:winapi_thunks.obj
 0002:00006e98       ??_C@_1EM@DILCGIIO@?$AAa?$AAp?$AAi?$AA?9?$AAm?$AAs?$AA?9?$AAw?$AAi?$AAn?$AA?9?$AAc?$AAo?$AAr?$AAe?$AA?9?$AAp?$AAr?$AAo?$AAc?$AAe?$AAs?$AAs?$AAt?$AAh?$AAr?$AAe?$AAa?$AAd?$AAs?$AA?9?$AAl@ 10037e98     libucrt:winapi_thunks.obj
 0002:00006ee4       ??_C@_1DM@LNCGDDPN@?$AAa?$AAp?$AAi?$AA?9?$AAm?$AAs?$AA?9?$AAw?$AAi?$AAn?$AA?9?$AAc?$AAo?$AAr?$AAe?$AA?9?$AAs?$AAt?$AAr?$AAi?$AAn?$AAg?$AA?9?$AAl?$AA1?$AA?9?$AA1?$AA?9?$AA0?$AA?$AA@ 10037ee4     libucrt:winapi_thunks.obj
 0002:00006f20       ??_C@_1DO@FPAPJEMD@?$AAa?$AAp?$AAi?$AA?9?$AAm?$AAs?$AA?9?$AAw?$AAi?$AAn?$AA?9?$AAc?$AAo?$AAr?$AAe?$AA?9?$AAs?$AAy?$AAs?$AAi?$AAn?$AAf?$AAo?$AA?9?$AAl?$AA1?$AA?9?$AA2?$AA?9?$AA1?$AA?$AA@ 10037f20     libucrt:winapi_thunks.obj
 0002:00006f60       ??_C@_1DK@NDHNAHIO@?$AAa?$AAp?$AAi?$AA?9?$AAm?$AAs?$AA?9?$AAw?$AAi?$AAn?$AA?9?$AAc?$AAo?$AAr?$AAe?$AA?9?$AAw?$AAi?$AAn?$AAr?$AAt?$AA?9?$AAl?$AA1?$AA?9?$AA1?$AA?9?$AA0?$AA?$AA@ 10037f60     libucrt:winapi_thunks.obj
 0002:00006f9c       ??_C@_1DM@KGHDGBCM@?$AAa?$AAp?$AAi?$AA?9?$AAm?$AAs?$AA?9?$AAw?$AAi?$AAn?$AA?9?$AAc?$AAo?$AAr?$AAe?$AA?9?$AAx?$AAs?$AAt?$AAa?$AAt?$AAe?$AA?9?$AAl?$AA2?$AA?9?$AA1?$AA?9?$AA0?$AA?$AA@ 10037f9c     libucrt:winapi_thunks.obj
 0002:00006fd8       ??_C@_1EO@IJIOEFOH@?$AAa?$AAp?$AAi?$AA?9?$AAm?$AAs?$AA?9?$AAw?$AAi?$AAn?$AA?9?$AAr?$AAt?$AAc?$AAo?$AAr?$AAe?$AA?9?$AAn?$AAt?$AAu?$AAs?$AAe?$AAr?$AA?9?$AAw?$AAi?$AAn?$AAd?$AAo?$AAw?$AA?9@ 10037fd8     libucrt:winapi_thunks.obj
 0002:00007028       ??_C@_1FG@HHGEKANL@?$AAa?$AAp?$AAi?$AA?9?$AAm?$AAs?$AA?9?$AAw?$AAi?$AAn?$AA?9?$AAs?$AAe?$AAc?$AAu?$AAr?$AAi?$AAt?$AAy?$AA?9?$AAs?$AAy?$AAs?$AAt?$AAe?$AAm?$AAf?$AAu?$AAn?$AAc?$AAt?$AAi@ 10038028     libucrt:winapi_thunks.obj
 0002:00007080       ??_C@_1FG@NCKKOLKO@?$AAe?$AAx?$AAt?$AA?9?$AAm?$AAs?$AA?9?$AAw?$AAi?$AAn?$AA?9?$AAk?$AAe?$AAr?$AAn?$AAe?$AAl?$AA3?$AA2?$AA?9?$AAp?$AAa?$AAc?$AAk?$AAa?$AAg?$AAe?$AA?9?$AAc?$AAu?$AAr?$AAr@ 10038080     libucrt:winapi_thunks.obj
 0002:000070d8       ??_C@_1EG@DBIOJECG@?$AAe?$AAx?$AAt?$AA?9?$AAm?$AAs?$AA?9?$AAw?$AAi?$AAn?$AA?9?$AAn?$AAt?$AAu?$AAs?$AAe?$AAr?$AA?9?$AAd?$AAi?$AAa?$AAl?$AAo?$AAg?$AAb?$AAo?$AAx?$AA?9?$AAl?$AA1?$AA?9?$AA1@ 100380d8     libucrt:winapi_thunks.obj
 0002:00007120       ??_C@_1EO@FIHMJCLF@?$AAe?$AAx?$AAt?$AA?9?$AAm?$AAs?$AA?9?$AAw?$AAi?$AAn?$AA?9?$AAn?$AAt?$AAu?$AAs?$AAe?$AAr?$AA?9?$AAw?$AAi?$AAn?$AAd?$AAo?$AAw?$AAs?$AAt?$AAa?$AAt?$AAi?$AAo?$AAn?$AA?9@ 10038120     libucrt:winapi_thunks.obj
 0002:00007170       ??_C@_1O@BCCLBEOE@?$AAu?$AAs?$AAe?$AAr?$AA3?$AA2?$AA?$AA@ 10038170     libucrt:winapi_thunks.obj
 0002:00007190       ??_C@_0BE@LJANKFHF@EnumSystemLocalesEx?$AA@ 10038190     libucrt:winapi_thunks.obj
 0002:000071dc       ??_C@_0BJ@PBCCBIPI@GetUserDefaultLocaleName?$AA@ 100381dc     libucrt:winapi_thunks.obj
 0002:00007208       ??_C@_0BC@CELBKLLA@IsValidLocaleName?$AA@ 10038208     libucrt:winapi_thunks.obj
 0002:0000722c       ??_C@_0BB@CDHDDLLP@LCIDToLocaleName?$AA@ 1003822c     libucrt:winapi_thunks.obj
 0002:00007248       ??_C@_0BB@HBDEELFH@LocaleNameToLCID?$AA@ 10038248     libucrt:winapi_thunks.obj
 0002:00007270       __indefinite               10038270     libucrt:87disp.obj
 0002:0000727a       __piby2                    1003827a     libucrt:87disp.obj
 0002:00007284       __piby4                    10038284     libucrt:87disp.obj
 0002:000072b8       __DEFAULT_CW_in_mem        100382b8     libucrt:common.obj
 0002:000072ba       __pi_by_2_to_61            100382ba     libucrt:common.obj
 0002:000072f4       ??_C@_05DNEBIAHO@1?$CDINF?$AA@ 100382f4     libucrt:cfout.obj
 0002:000072fc       ??_C@_06IMKFLFPG@1?$CDQNAN?$AA@ 100382fc     libucrt:cfout.obj
 0002:00007304       ??_C@_06PGGFOGJG@1?$CDSNAN?$AA@ 10038304     libucrt:cfout.obj
 0002:0000730c       ??_C@_05PHHOCPM@1?$CDIND?$AA@ 1003830c     libucrt:cfout.obj
 0002:00007314       ??_C@_1BC@LLOKLNP@?$AAa?$AAm?$AAe?$AAr?$AAi?$AAc?$AAa?$AAn?$AA?$AA@ 10038314     libucrt:get_qualified_locale.obj
 0002:00007328       ??_C@_1CC@HEIGCDGG@?$AAa?$AAm?$AAe?$AAr?$AAi?$AAc?$AAa?$AAn?$AA?5?$AAe?$AAn?$AAg?$AAl?$AAi?$AAs?$AAh?$AA?$AA@ 10038328     libucrt:get_qualified_locale.obj
 0002:0000734c       ??_C@_1CC@IHCNOMIN@?$AAa?$AAm?$AAe?$AAr?$AAi?$AAc?$AAa?$AAn?$AA?9?$AAe?$AAn?$AAg?$AAl?$AAi?$AAs?$AAh?$AA?$AA@ 1003834c     libucrt:get_qualified_locale.obj
 0002:00007370       ??_C@_1BG@GKAGPCGG@?$AAa?$AAu?$AAs?$AAt?$AAr?$AAa?$AAl?$AAi?$AAa?$AAn?$AA?$AA@ 10038370     libucrt:get_qualified_locale.obj
 0002:00007388       ??_C@_1BA@GMENCENF@?$AAb?$AAe?$AAl?$AAg?$AAi?$AAa?$AAn?$AA?$AA@ 10038388     libucrt:get_qualified_locale.obj
 0002:00007398       ??_C@_1BC@PJMIIAAN@?$AAc?$AAa?$AAn?$AAa?$AAd?$AAi?$AAa?$AAn?$AA?$AA@ 10038398     libucrt:get_qualified_locale.obj
 0002:000073ac       ??_C@_17NOIMNFBF@?$AAc?$AAh?$AAh?$AA?$AA@ 100383ac     libucrt:get_qualified_locale.obj
 0002:000073b4       ??_C@_17GGDALCHA@?$AAc?$AAh?$AAi?$AA?$AA@ 100383b4     libucrt:get_qualified_locale.obj
 0002:000073bc       ??_C@_1BA@NPNJKIBL@?$AAc?$AAh?$AAi?$AAn?$AAe?$AAs?$AAe?$AA?$AA@ 100383bc     libucrt:get_qualified_locale.obj
 0002:000073cc       ??_C@_1CC@DINBAMMJ@?$AAc?$AAh?$AAi?$AAn?$AAe?$AAs?$AAe?$AA?9?$AAh?$AAo?$AAn?$AAg?$AAk?$AAo?$AAn?$AAg?$AA?$AA@ 100383cc     libucrt:get_qualified_locale.obj
 0002:000073f0       ??_C@_1CG@IOBJPACO@?$AAc?$AAh?$AAi?$AAn?$AAe?$AAs?$AAe?$AA?9?$AAs?$AAi?$AAm?$AAp?$AAl?$AAi?$AAf?$AAi?$AAe?$AAd?$AA?$AA@ 100383f0     libucrt:get_qualified_locale.obj
 0002:00007418       ??_C@_1CE@GAJNDCKG@?$AAc?$AAh?$AAi?$AAn?$AAe?$AAs?$AAe?$AA?9?$AAs?$AAi?$AAn?$AAg?$AAa?$AAp?$AAo?$AAr?$AAe?$AA?$AA@ 10038418     libucrt:get_qualified_locale.obj
 0002:0000743c       ??_C@_1CI@PAJPIOOD@?$AAc?$AAh?$AAi?$AAn?$AAe?$AAs?$AAe?$AA?9?$AAt?$AAr?$AAa?$AAd?$AAi?$AAt?$AAi?$AAo?$AAn?$AAa?$AAl?$AA?$AA@ 1003843c     libucrt:get_qualified_locale.obj
 0002:00007464       ??_C@_1BM@NILJBMMD@?$AAd?$AAu?$AAt?$AAc?$AAh?$AA?9?$AAb?$AAe?$AAl?$AAg?$AAi?$AAa?$AAn?$AA?$AA@ 10038464     libucrt:get_qualified_locale.obj
 0002:00007480       ??_C@_1CC@OOJPJNEJ@?$AAe?$AAn?$AAg?$AAl?$AAi?$AAs?$AAh?$AA?9?$AAa?$AAm?$AAe?$AAr?$AAi?$AAc?$AAa?$AAn?$AA?$AA@ 10038480     libucrt:get_qualified_locale.obj
 0002:000074a4       ??_C@_1BI@IOLFEEM@?$AAe?$AAn?$AAg?$AAl?$AAi?$AAs?$AAh?$AA?9?$AAa?$AAu?$AAs?$AA?$AA@ 100384a4     libucrt:get_qualified_locale.obj
 0002:000074bc       ??_C@_1BO@HFFNLENJ@?$AAe?$AAn?$AAg?$AAl?$AAi?$AAs?$AAh?$AA?9?$AAb?$AAe?$AAl?$AAi?$AAz?$AAe?$AA?$AA@ 100384bc     libucrt:get_qualified_locale.obj
 0002:000074dc       ??_C@_1BI@HAPKJMPO@?$AAe?$AAn?$AAg?$AAl?$AAi?$AAs?$AAh?$AA?9?$AAc?$AAa?$AAn?$AA?$AA@ 100384dc     libucrt:get_qualified_locale.obj
 0002:000074f4       ??_C@_1CE@HLNDMIOJ@?$AAe?$AAn?$AAg?$AAl?$AAi?$AAs?$AAh?$AA?9?$AAc?$AAa?$AAr?$AAi?$AAb?$AAb?$AAe?$AAa?$AAn?$AA?$AA@ 100384f4     libucrt:get_qualified_locale.obj
 0002:00007518       ??_C@_1BI@LDHJHHAC@?$AAe?$AAn?$AAg?$AAl?$AAi?$AAs?$AAh?$AA?9?$AAi?$AAr?$AAe?$AA?$AA@ 10038518     libucrt:get_qualified_locale.obj
 0002:00007530       ??_C@_1CA@NJMMCFOC@?$AAe?$AAn?$AAg?$AAl?$AAi?$AAs?$AAh?$AA?9?$AAj?$AAa?$AAm?$AAa?$AAi?$AAc?$AAa?$AA?$AA@ 10038530     libucrt:get_qualified_locale.obj
 0002:00007550       ??_C@_1BG@BHJEBBGG@?$AAe?$AAn?$AAg?$AAl?$AAi?$AAs?$AAh?$AA?9?$AAn?$AAz?$AA?$AA@ 10038550     libucrt:get_qualified_locale.obj
 0002:00007568       ??_C@_1CK@FGOEJJCO@?$AAe?$AAn?$AAg?$AAl?$AAi?$AAs?$AAh?$AA?9?$AAs?$AAo?$AAu?$AAt?$AAh?$AA?5?$AAa?$AAf?$AAr?$AAi?$AAc?$AAa?$AA?$AA@ 10038568     libucrt:get_qualified_locale.obj
 0002:00007594       ??_C@_1DE@PDBJPCJ@?$AAe?$AAn?$AAg?$AAl?$AAi?$AAs?$AAh?$AA?9?$AAt?$AAr?$AAi?$AAn?$AAi?$AAd?$AAa?$AAd?$AA?5?$AAy?$AA?5?$AAt?$AAo?$AAb?$AAa?$AAg?$AAo?$AA?$AA@ 10038594     libucrt:get_qualified_locale.obj
 0002:000075c8       ??_C@_1BG@JGCANDME@?$AAe?$AAn?$AAg?$AAl?$AAi?$AAs?$AAh?$AA?9?$AAu?$AAk?$AA?$AA@ 100385c8     libucrt:get_qualified_locale.obj
 0002:000075e0       ??_C@_1BG@DINKMLE@?$AAe?$AAn?$AAg?$AAl?$AAi?$AAs?$AAh?$AA?9?$AAu?$AAs?$AA?$AA@ 100385e0     libucrt:get_qualified_locale.obj
 0002:000075f8       ??_C@_1BI@NMFDBHJE@?$AAe?$AAn?$AAg?$AAl?$AAi?$AAs?$AAh?$AA?9?$AAu?$AAs?$AAa?$AA?$AA@ 100385f8     libucrt:get_qualified_locale.obj
 0002:00007610       ??_C@_1BO@OIHKJKII@?$AAf?$AAr?$AAe?$AAn?$AAc?$AAh?$AA?9?$AAb?$AAe?$AAl?$AAg?$AAi?$AAa?$AAn?$AA?$AA@ 10038610     libucrt:get_qualified_locale.obj
 0002:00007630       ??_C@_1CA@NKAELJKI@?$AAf?$AAr?$AAe?$AAn?$AAc?$AAh?$AA?9?$AAc?$AAa?$AAn?$AAa?$AAd?$AAi?$AAa?$AAn?$AA?$AA@ 10038630     libucrt:get_qualified_locale.obj
 0002:00007650       ??_C@_1CE@MGKCNLGN@?$AAf?$AAr?$AAe?$AAn?$AAc?$AAh?$AA?9?$AAl?$AAu?$AAx?$AAe?$AAm?$AAb?$AAo?$AAu?$AAr?$AAg?$AA?$AA@ 10038650     libucrt:get_qualified_locale.obj
 0002:00007674       ??_C@_1BK@CEGEAILM@?$AAf?$AAr?$AAe?$AAn?$AAc?$AAh?$AA?9?$AAs?$AAw?$AAi?$AAs?$AAs?$AA?$AA@ 10038674     libucrt:get_qualified_locale.obj
 0002:00007690       ??_C@_1CA@PAFKEOCC@?$AAg?$AAe?$AAr?$AAm?$AAa?$AAn?$AA?9?$AAa?$AAu?$AAs?$AAt?$AAr?$AAi?$AAa?$AAn?$AA?$AA@ 10038690     libucrt:get_qualified_locale.obj
 0002:000076b0       ??_C@_1CI@HCFHGOFD@?$AAg?$AAe?$AAr?$AAm?$AAa?$AAn?$AA?9?$AAl?$AAi?$AAc?$AAh?$AAt?$AAe?$AAn?$AAs?$AAt?$AAe?$AAi?$AAn?$AA?$AA@ 100386b0     libucrt:get_qualified_locale.obj
 0002:000076d8       ??_C@_1CE@FEDDNPDG@?$AAg?$AAe?$AAr?$AAm?$AAa?$AAn?$AA?9?$AAl?$AAu?$AAx?$AAe?$AAm?$AAb?$AAo?$AAu?$AAr?$AAg?$AA?$AA@ 100386d8     libucrt:get_qualified_locale.obj
 0002:000076fc       ??_C@_1BK@LIMINNMN@?$AAg?$AAe?$AAr?$AAm?$AAa?$AAn?$AA?9?$AAs?$AAw?$AAi?$AAs?$AAs?$AA?$AA@ 100386fc     libucrt:get_qualified_locale.obj
 0002:00007718       ??_C@_1BM@LGMDBEPD@?$AAi?$AAr?$AAi?$AAs?$AAh?$AA?9?$AAe?$AAn?$AAg?$AAl?$AAi?$AAs?$AAh?$AA?$AA@ 10038718     libucrt:get_qualified_locale.obj
 0002:00007734       ??_C@_1BM@NNCFBAEE@?$AAi?$AAt?$AAa?$AAl?$AAi?$AAa?$AAn?$AA?9?$AAs?$AAw?$AAi?$AAs?$AAs?$AA?$AA@ 10038734     libucrt:get_qualified_locale.obj
 0002:00007750       ??_C@_1BE@FEDJNPIB@?$AAn?$AAo?$AAr?$AAw?$AAe?$AAg?$AAi?$AAa?$AAn?$AA?$AA@ 10038750     libucrt:get_qualified_locale.obj
 0002:00007764       ??_C@_1CC@CILKDEIE@?$AAn?$AAo?$AAr?$AAw?$AAe?$AAg?$AAi?$AAa?$AAn?$AA?9?$AAb?$AAo?$AAk?$AAm?$AAa?$AAl?$AA?$AA@ 10038764     libucrt:get_qualified_locale.obj
 0002:00007788       ??_C@_1CE@DHMMHEPL@?$AAn?$AAo?$AAr?$AAw?$AAe?$AAg?$AAi?$AAa?$AAn?$AA?9?$AAn?$AAy?$AAn?$AAo?$AAr?$AAs?$AAk?$AA?$AA@ 10038788     libucrt:get_qualified_locale.obj
 0002:000077ac       ??_C@_1CK@OPNMHECD@?$AAp?$AAo?$AAr?$AAt?$AAu?$AAg?$AAu?$AAe?$AAs?$AAe?$AA?9?$AAb?$AAr?$AAa?$AAz?$AAi?$AAl?$AAi?$AAa?$AAn?$AA?$AA@ 100387ac     libucrt:get_qualified_locale.obj
 0002:000077d8       ??_C@_1CE@KEEHCDB@?$AAs?$AAp?$AAa?$AAn?$AAi?$AAs?$AAh?$AA?9?$AAa?$AAr?$AAg?$AAe?$AAn?$AAt?$AAi?$AAn?$AAa?$AA?$AA@ 100387d8     libucrt:get_qualified_locale.obj
 0002:000077fc       ??_C@_1CA@GIAOLHJD@?$AAs?$AAp?$AAa?$AAn?$AAi?$AAs?$AAh?$AA?9?$AAb?$AAo?$AAl?$AAi?$AAv?$AAi?$AAa?$AA?$AA@ 100387fc     libucrt:get_qualified_locale.obj
 0002:0000781c       ??_C@_1BM@OJNDFNPD@?$AAs?$AAp?$AAa?$AAn?$AAi?$AAs?$AAh?$AA?9?$AAc?$AAh?$AAi?$AAl?$AAe?$AA?$AA@ 1003881c     libucrt:get_qualified_locale.obj
 0002:00007838       ??_C@_1CC@OCOLPALL@?$AAs?$AAp?$AAa?$AAn?$AAi?$AAs?$AAh?$AA?9?$AAc?$AAo?$AAl?$AAo?$AAm?$AAb?$AAi?$AAa?$AA?$AA@ 10038838     libucrt:get_qualified_locale.obj
 0002:0000785c       ??_C@_1CG@BPOFMKBB@?$AAs?$AAp?$AAa?$AAn?$AAi?$AAs?$AAh?$AA?9?$AAc?$AAo?$AAs?$AAt?$AAa?$AA?5?$AAr?$AAi?$AAc?$AAa?$AA?$AA@ 1003885c     libucrt:get_qualified_locale.obj
 0002:00007884       ??_C@_1DG@IGOBAPBB@?$AAs?$AAp?$AAa?$AAn?$AAi?$AAs?$AAh?$AA?9?$AAd?$AAo?$AAm?$AAi?$AAn?$AAi?$AAc?$AAa?$AAn?$AA?5?$AAr?$AAe?$AAp?$AAu?$AAb?$AAl?$AAi?$AAc?$AA?$AA@ 10038884     libucrt:get_qualified_locale.obj
 0002:000078bc       ??_C@_1CA@JHAPGEGI@?$AAs?$AAp?$AAa?$AAn?$AAi?$AAs?$AAh?$AA?9?$AAe?$AAc?$AAu?$AAa?$AAd?$AAo?$AAr?$AA?$AA@ 100388bc     libucrt:get_qualified_locale.obj
 0002:000078dc       ??_C@_1CI@LAPALJPP@?$AAs?$AAp?$AAa?$AAn?$AAi?$AAs?$AAh?$AA?9?$AAe?$AAl?$AA?5?$AAs?$AAa?$AAl?$AAv?$AAa?$AAd?$AAo?$AAr?$AA?$AA@ 100388dc     libucrt:get_qualified_locale.obj
 0002:00007904       ??_C@_1CE@PDGBOFOM@?$AAs?$AAp?$AAa?$AAn?$AAi?$AAs?$AAh?$AA?9?$AAg?$AAu?$AAa?$AAt?$AAe?$AAm?$AAa?$AAl?$AAa?$AA?$AA@ 10038904     libucrt:get_qualified_locale.obj
 0002:00007928       ??_C@_1CC@NBEBAODI@?$AAs?$AAp?$AAa?$AAn?$AAi?$AAs?$AAh?$AA?9?$AAh?$AAo?$AAn?$AAd?$AAu?$AAr?$AAa?$AAs?$AA?$AA@ 10038928     libucrt:get_qualified_locale.obj
 0002:0000794c       ??_C@_1CA@LLKGHBMF@?$AAs?$AAp?$AAa?$AAn?$AAi?$AAs?$AAh?$AA?9?$AAm?$AAe?$AAx?$AAi?$AAc?$AAa?$AAn?$AA?$AA@ 1003894c     libucrt:get_qualified_locale.obj
 0002:0000796c       ??_C@_1BO@LKNDOIGD@?$AAs?$AAp?$AAa?$AAn?$AAi?$AAs?$AAh?$AA?9?$AAm?$AAo?$AAd?$AAe?$AAr?$AAn?$AA?$AA@ 1003896c     libucrt:get_qualified_locale.obj
 0002:0000798c       ??_C@_1CE@NMDMOEEB@?$AAs?$AAp?$AAa?$AAn?$AAi?$AAs?$AAh?$AA?9?$AAn?$AAi?$AAc?$AAa?$AAr?$AAa?$AAg?$AAu?$AAa?$AA?$AA@ 1003898c     libucrt:get_qualified_locale.obj
 0002:000079b0       ??_C@_1BO@LLCBEJGB@?$AAs?$AAp?$AAa?$AAn?$AAi?$AAs?$AAh?$AA?9?$AAp?$AAa?$AAn?$AAa?$AAm?$AAa?$AA?$AA@ 100389b0     libucrt:get_qualified_locale.obj
 0002:000079d0       ??_C@_1CC@FKPGGIHO@?$AAs?$AAp?$AAa?$AAn?$AAi?$AAs?$AAh?$AA?9?$AAp?$AAa?$AAr?$AAa?$AAg?$AAu?$AAa?$AAy?$AA?$AA@ 100389d0     libucrt:get_qualified_locale.obj
 0002:000079f4       ??_C@_1BK@CDEIHOOP@?$AAs?$AAp?$AAa?$AAn?$AAi?$AAs?$AAh?$AA?9?$AAp?$AAe?$AAr?$AAu?$AA?$AA@ 100389f4     libucrt:get_qualified_locale.obj
 0002:00007a10       ??_C@_1CI@GAHAKKGP@?$AAs?$AAp?$AAa?$AAn?$AAi?$AAs?$AAh?$AA?9?$AAp?$AAu?$AAe?$AAr?$AAt?$AAo?$AA?5?$AAr?$AAi?$AAc?$AAo?$AA?$AA@ 10038a10     libucrt:get_qualified_locale.obj
 0002:00007a38       ??_C@_1CA@NKJBCAGP@?$AAs?$AAp?$AAa?$AAn?$AAi?$AAs?$AAh?$AA?9?$AAu?$AAr?$AAu?$AAg?$AAu?$AAa?$AAy?$AA?$AA@ 10038a38     libucrt:get_qualified_locale.obj
 0002:00007a58       ??_C@_1CE@ODILCONM@?$AAs?$AAp?$AAa?$AAn?$AAi?$AAs?$AAh?$AA?9?$AAv?$AAe?$AAn?$AAe?$AAz?$AAu?$AAe?$AAl?$AAa?$AA?$AA@ 10038a58     libucrt:get_qualified_locale.obj
 0002:00007a7c       ??_C@_1CA@OBNMCGFO@?$AAs?$AAw?$AAe?$AAd?$AAi?$AAs?$AAh?$AA?9?$AAf?$AAi?$AAn?$AAl?$AAa?$AAn?$AAd?$AA?$AA@ 10038a7c     libucrt:get_qualified_locale.obj
 0002:00007a9c       ??_C@_1M@PIPDDPPI@?$AAs?$AAw?$AAi?$AAs?$AAs?$AA?$AA@ 10038a9c     libucrt:get_qualified_locale.obj
 0002:00007aa8       ??_C@_15GMFIMNFM@?$AAu?$AAs?$AA?$AA@ 10038aa8     libucrt:get_qualified_locale.obj
 0002:00007ab0       ??_C@_17HAEBFAGL@?$AAu?$AAs?$AAa?$AA?$AA@ 10038ab0     libucrt:get_qualified_locale.obj
 0002:00007ab8       ??_C@_1BA@DPFJEPHB@?$AAa?$AAm?$AAe?$AAr?$AAi?$AAc?$AAa?$AA?$AA@ 10038ab8     libucrt:get_qualified_locale.obj
 0002:00007ac8       ??_C@_1BA@ELOGGFK@?$AAb?$AAr?$AAi?$AAt?$AAa?$AAi?$AAn?$AA?$AA@ 10038ac8     libucrt:get_qualified_locale.obj
 0002:00007ad8       ??_C@_1M@GHBGIGDA@?$AAc?$AAh?$AAi?$AAn?$AAa?$AA?$AA@ 10038ad8     libucrt:get_qualified_locale.obj
 0002:00007ae4       ??_C@_1M@NCHEJOPO@?$AAc?$AAz?$AAe?$AAc?$AAh?$AA?$AA@ 10038ae4     libucrt:get_qualified_locale.obj
 0002:00007af0       ??_C@_1BA@BKPAPBLA@?$AAe?$AAn?$AAg?$AAl?$AAa?$AAn?$AAd?$AA?$AA@ 10038af0     libucrt:get_qualified_locale.obj
 0002:00007b00       ??_C@_1BM@HKBCKIPC@?$AAg?$AAr?$AAe?$AAa?$AAt?$AA?5?$AAb?$AAr?$AAi?$AAt?$AAa?$AAi?$AAn?$AA?$AA@ 10038b00     libucrt:get_qualified_locale.obj
 0002:00007b1c       ??_C@_1BA@PPCHPGJB@?$AAh?$AAo?$AAl?$AAl?$AAa?$AAn?$AAd?$AA?$AA@ 10038b1c     libucrt:get_qualified_locale.obj
 0002:00007b2c       ??_C@_1BE@JBMPEGDG@?$AAh?$AAo?$AAn?$AAg?$AA?9?$AAk?$AAo?$AAn?$AAg?$AA?$AA@ 10038b2c     libucrt:get_qualified_locale.obj
 0002:00007b40       ??_C@_1BI@KOELBBPJ@?$AAn?$AAe?$AAw?$AA?9?$AAz?$AAe?$AAa?$AAl?$AAa?$AAn?$AAd?$AA?$AA@ 10038b40     libucrt:get_qualified_locale.obj
 0002:00007b58       ??_C@_15HIEBHAIO@?$AAn?$AAz?$AA?$AA@ 10038b58     libucrt:get_qualified_locale.obj
 0002:00007b60       ??_C@_1BC@CHBCPFPI@?$AAp?$AAr?$AA?5?$AAc?$AAh?$AAi?$AAn?$AAa?$AA?$AA@ 10038b60     libucrt:get_qualified_locale.obj
 0002:00007b74       ??_C@_1BC@JAOIIFKD@?$AAp?$AAr?$AA?9?$AAc?$AAh?$AAi?$AAn?$AAa?$AA?$AA@ 10038b74     libucrt:get_qualified_locale.obj
 0002:00007b88       ??_C@_1BI@BEHPPHKC@?$AAp?$AAu?$AAe?$AAr?$AAt?$AAo?$AA?9?$AAr?$AAi?$AAc?$AAo?$AA?$AA@ 10038b88     libucrt:get_qualified_locale.obj
 0002:00007ba0       ??_C@_1O@PAEOFKDI@?$AAs?$AAl?$AAo?$AAv?$AAa?$AAk?$AA?$AA@ 10038ba0     libucrt:get_qualified_locale.obj
 0002:00007bb0       ??_C@_1BK@FIHMCKAM@?$AAs?$AAo?$AAu?$AAt?$AAh?$AA?5?$AAa?$AAf?$AAr?$AAi?$AAc?$AAa?$AA?$AA@ 10038bb0     libucrt:get_qualified_locale.obj
 0002:00007bcc       ??_C@_1BI@NAEOODKB@?$AAs?$AAo?$AAu?$AAt?$AAh?$AA?5?$AAk?$AAo?$AAr?$AAe?$AAa?$AA?$AA@ 10038bcc     libucrt:get_qualified_locale.obj
 0002:00007be4       ??_C@_1BK@FBDGGIFF@?$AAs?$AAo?$AAu?$AAt?$AAh?$AA?9?$AAa?$AAf?$AAr?$AAi?$AAc?$AAa?$AA?$AA@ 10038be4     libucrt:get_qualified_locale.obj
 0002:00007c00       ??_C@_1BI@GHLEJDPK@?$AAs?$AAo?$AAu?$AAt?$AAh?$AA?9?$AAk?$AAo?$AAr?$AAe?$AAa?$AA?$AA@ 10038c00     libucrt:get_qualified_locale.obj
 0002:00007c18       ??_C@_1CE@PLHLOMJF@?$AAt?$AAr?$AAi?$AAn?$AAi?$AAd?$AAa?$AAd?$AA?5?$AA?$CG?$AA?5?$AAt?$AAo?$AAb?$AAa?$AAg?$AAo?$AA?$AA@ 10038c18     libucrt:get_qualified_locale.obj
 0002:00007c3c       ??_C@_1BO@MODIMHHI@?$AAu?$AAn?$AAi?$AAt?$AAe?$AAd?$AA?9?$AAk?$AAi?$AAn?$AAg?$AAd?$AAo?$AAm?$AA?$AA@ 10038c3c     libucrt:get_qualified_locale.obj
 0002:00007c5c       ??_C@_1BM@FFHJONBJ@?$AAu?$AAn?$AAi?$AAt?$AAe?$AAd?$AA?9?$AAs?$AAt?$AAa?$AAt?$AAe?$AAs?$AA?$AA@ 10038c5c     libucrt:get_qualified_locale.obj
 0002:00007c78       ___acrt_rg_language        10038c78     libucrt:get_qualified_locale.obj
 0002:00007f84       ___acrt_rg_language_count  10038f84     libucrt:get_qualified_locale.obj
 0002:00007f88       ___acrt_rg_country         10038f88     libucrt:get_qualified_locale.obj
 0002:0000809c       ___acrt_rg_country_count   1003909c     libucrt:get_qualified_locale.obj
 0002:000080a0       ??_C@_17DNCLJFIF@?$AAA?$AAC?$AAP?$AA?$AA@ 100390a0     libucrt:get_qualified_locale.obj
 0002:000080a8       ??_C@_17CIKBIHLH@?$AAO?$AAC?$AAP?$AA?$AA@ 100390a8     libucrt:get_qualified_locale.obj
 0002:000080b0       ___rglangidNotDefault      100390b0     libucrt:getqloc_downlevel.obj
 0002:00008f68       ??_C@_1BA@BALFACEM@?$AAC?$AAO?$AAN?$AAO?$AAU?$AAT?$AA$?$AA?$AA@ 10039f68     libucrt:initcon.obj
 0002:00009080       __infinity                 1003a080     libucrt:87tran.obj
 0002:0000908a       __minfinity                1003a08a     libucrt:87tran.obj
 0002:00009094       __logemax                  1003a094     libucrt:87tran.obj
 0002:000090ba       __OP_EXPjmptab             1003a0ba     libucrt:87tran.obj
 0002:000090e0       ___acrt_log10_table_t      1003a0e0     libucrt:log10_tables.obj
 0002:000094f0       ___acrt_log10_table_cb     1003a4f0     libucrt:log10_tables.obj
 0002:00009900       ??_C@_0P@PPJHFMDD@Lucida?5Console?$AA@ 1003a900     cFont.obj
 0002:00009910       ??_C@_04OICHDFFD@mini?$AA@ 1003a910     cFont.obj
 0002:00009918       ??_C@_0BC@EOODALEL@Unknown?5exception?$AA@ 1003a918     Client.obj
 0002:0000992c       ??_C@_08EPJLHIJG@bad?5cast?$AA@ 1003a92c     Client.obj
 0002:00009938       ??_C@_0BA@ELKIONDK@bad?5locale?5name?$AA@ 1003a938     Client.obj
 0002:00009948       ??_C@_01GFHCPBMG@C?$AA@    1003a948     Client.obj
 0002:0000994a       ??_C@_00CNPNBAHC@?$AA@     1003a94a     Client.obj
 0002:0000994c       ??_C@_02LMMGGCAJ@?3?5?$AA@ 1003a94c     Client.obj
 0002:00009950       ??_C@_08LLGCOLLL@iostream?$AA@ 1003a950     Client.obj
 0002:0000995c       ??_C@_0BG@PADBLCHM@iostream?5stream?5error?$AA@ 1003a95c     Client.obj
 0002:00009974       ??_C@_0BF@PHHKMMFD@ios_base?3?3badbit?5set?$AA@ 1003a974     Client.obj
 0002:0000998c       ??_C@_0BG@FMKFHCIL@ios_base?3?3failbit?5set?$AA@ 1003a98c     Client.obj
 0002:000099a4       ??_C@_0BF@OOHOMBOF@ios_base?3?3eofbit?5set?$AA@ 1003a9a4     Client.obj
 0002:000099bc       ??_C@_04DEJBKPEG@awp?4?$AA@ 1003a9bc     Client.obj
 0002:000099c4       ??_C@_06COAPOOFB@scout?4?$AA@ 1003a9c4     Client.obj
 0002:000099cc       ??_C@_05DGBNFBDA@ak47?4?$AA@ 1003a9cc     Client.obj
 0002:000099d4       ??_C@_05DMCEKHD@m4a1?4?$AA@ 1003a9d4     Client.obj
 0002:000099dc       ??_C@_07MLKDNCGL@deagle?4?$AA@ 1003a9dc     Client.obj
 0002:000099e4       ??_C@_06PGNFHJBO@famas?4?$AA@ 1003a9e4     Client.obj
 0002:000099ec       ??_C@_06LPAMJHLI@galil?4?$AA@ 1003a9ec     Client.obj
 0002:000099f4       ??_C@_06COMAAIFH@glock?4?$AA@ 1003a9f4     Client.obj
 0002:000099fc       ??_C@_04BKOHDFNF@mp5?4?$AA@ 1003a9fc     Client.obj
 0002:00009a04       ??_C@_04COJDAJFD@usp?4?$AA@ 1003aa04     Client.obj
 0002:00009a0c       ??_C@_04IHPBNCDI@aug?4?$AA@ 1003aa0c     Client.obj
 0002:00009a14       ??_C@_06PBEPKOPC@elite?4?$AA@ 1003aa14     Client.obj
 0002:00009a1c       ??_C@_0L@KMMEIAFF@fiveseven?4?$AA@ 1003aa1c     Client.obj
 0002:00009a28       ??_C@_06JIEBPEMH@g3sg1?4?$AA@ 1003aa28     Client.obj
 0002:00009a30       ??_C@_05HOECBBPL@m249?4?$AA@ 1003aa30     Client.obj
 0002:00009a38       ??_C@_06PCDDKPLO@mac10?4?$AA@ 1003aa38     Client.obj
 0002:00009a40       ??_C@_05OFKDDFFF@p228?4?$AA@ 1003aa40     Client.obj
 0002:00009a48       ??_C@_04GCEALDLK@p90?4?$AA@ 1003aa48     Client.obj
 0002:00009a50       ??_C@_06CLLKAGAM@sg550?4?$AA@ 1003aa50     Client.obj
 0002:00009a58       ??_C@_06CIDONCGC@sg552?4?$AA@ 1003aa58     Client.obj
 0002:00009a60       ??_C@_04KDDFAAEP@tmp?4?$AA@ 1003aa60     Client.obj
 0002:00009a68       ??_C@_06MHJFGCOH@ump45?4?$AA@ 1003aa68     Client.obj
 0002:00009a70       ??_C@_04HIBGFPH@NULL?$AA@  1003aa70     Client.obj
 0002:00009a78       ??_C@_06CAAGCEOP@MOUSE1?$AA@ 1003aa78     Client.obj
 0002:00009a80       ??_C@_06LCLHHCM@MOUSE2?$AA@ 1003aa80     Client.obj
 0002:00009a88       ??_C@_06BCDAEGGN@MOUSE3?$AA@ 1003aa88     Client.obj
 0002:00009a90       ??_C@_06FNHBNAKK@MOUSE4?$AA@ 1003aa90     Client.obj
 0002:00009a98       ??_C@_06EEGKOBOL@MOUSE5?$AA@ 1003aa98     Client.obj
 0002:00009aa0       ??_C@_02LCPENACN@F1?$AA@   1003aaa0     Client.obj
 0002:00009aa4       ??_C@_02JJNJIDOO@F2?$AA@   1003aaa4     Client.obj
 0002:00009aa8       ??_C@_02IAMCLCKP@F3?$AA@   1003aaa8     Client.obj
 0002:00009aac       ??_C@_02MPIDCEGI@F4?$AA@   1003aaac     Client.obj
 0002:00009ab0       ??_C@_02NGJIBFCJ@F5?$AA@   1003aab0     Client.obj
 0002:00009ab4       ??_C@_02PNLFEGOK@F6?$AA@   1003aab4     Client.obj
 0002:00009ab8       ??_C@_02OEKOHHKL@F7?$AA@   1003aab8     Client.obj
 0002:00009abc       ??_C@_02GDDGGLGE@F8?$AA@   1003aabc     Client.obj
 0002:00009ac0       ??_C@_02HKCNFKCF@F9?$AA@   1003aac0     Client.obj
 0002:00009ac4       ??_C@_03JKCLJOFG@F10?$AA@  1003aac4     Client.obj
 0002:00009ac8       ??_C@_05CAEOFMEP@SPACE?$AA@ 1003aac8     Client.obj
 0002:00009ad0       ??_C@_09MALOLBMO@BACKSPACE?$AA@ 1003aad0     Client.obj
 0002:00009adc       ??_C@_03CJMDHCGG@TAB?$AA@  1003aadc     Client.obj
 0002:00009ae0       ??_C@_05EMNIMLKD@ENTER?$AA@ 1003aae0     Client.obj
 0002:00009ae8       ??_C@_05OAHIEJBI@SHIFT?$AA@ 1003aae8     Client.obj
 0002:00009af0       ??_C@_04FBBFEIFJ@CTRL?$AA@ 1003aaf0     Client.obj
 0002:00009af8       ??_C@_03FKEEPDEP@ALT?$AA@  1003aaf8     Client.obj
 0002:00009afc       ??_C@_08INDENNHK@CAPSLOCK?$AA@ 1003aafc     Client.obj
 0002:00009b08       ??_C@_03MHNPAEMD@ESC?$AA@  1003ab08     Client.obj
 0002:00009b0c       ??_C@_06OEMEAEKN@INSERT?$AA@ 1003ab0c     Client.obj
 0002:00009b14       ??_C@_06BDJHINKG@PAGEUP?$AA@ 1003ab14     Client.obj
 0002:00009b1c       ??_C@_08DJKHFECA@PAGEDOWN?$AA@ 1003ab1c     Client.obj
 0002:00009b28       ??_C@_03JMGAKCCH@END?$AA@  1003ab28     Client.obj
 0002:00009b2c       ??_C@_04GHGFPGNC@HOME?$AA@ 1003ab2c     Client.obj
 0002:00009b34       ??_C@_04KCNEHMIH@LEFT?$AA@ 1003ab34     Client.obj
 0002:00009b3c       ??_C@_02NAHCJHOC@UP?$AA@   1003ab3c     Client.obj
 0002:00009b40       ??_C@_05PMAFOJDE@RIGHT?$AA@ 1003ab40     Client.obj
 0002:00009b48       ??_C@_04FANAOELO@DOWN?$AA@ 1003ab48     Client.obj
 0002:00009b50       ??_C@_06FKDAMKFP@DELETE?$AA@ 1003ab50     Client.obj
 0002:00009b58       ??_C@_0M@FAFDJMFG@PRINTSCREEN?$AA@ 1003ab58     Client.obj
 0002:00009b64       ??_C@_0L@GIKEHNEK@SCROLLLOCK?$AA@ 1003ab64     Client.obj
 0002:00009b70       ??_C@_01GBGANLPD@0?$AA@    1003ab70     Client.obj
 0002:00009b74       ??_C@_01HIHLOKLC@1?$AA@    1003ab74     Client.obj
 0002:00009b78       ??_C@_01FDFGLJHB@2?$AA@    1003ab78     Client.obj
 0002:00009b7c       ??_C@_01EKENIIDA@3?$AA@    1003ab7c     Client.obj
 0002:00009b80       ??_C@_01FAMBOPH@4?$AA@     1003ab80     Client.obj
 0002:00009b84       ??_C@_01BMBHCPLG@5?$AA@    1003ab84     Client.obj
 0002:00009b88       ??_C@_01DHDKHMHF@6?$AA@    1003ab88     Client.obj
 0002:00009b8c       ??_C@_01COCBENDE@7?$AA@    1003ab8c     Client.obj
 0002:00009b90       ??_C@_01KJLJFBPL@8?$AA@    1003ab90     Client.obj
 0002:00009b94       ??_C@_01LAKCGALK@9?$AA@    1003ab94     Client.obj
 0002:00009b98       ??_C@_01JOAMLHOP@?9?$AA@   1003ab98     Client.obj
 0002:00009b9c       ??_C@_01NEMOKFLO@?$DN?$AA@ 1003ab9c     Client.obj
 0002:00009ba0       ??_C@_01OHGJGJJP@?$FL?$AA@ 1003aba0     Client.obj
 0002:00009ba4       ??_C@_01LBDDMOBJ@?$FN?$AA@ 1003aba4     Client.obj
 0002:00009ba8       ??_C@_01ICJEACDI@?$DL?$AA@ 1003aba8     Client.obj
 0002:00009bac       ??_C@_01GEODFPGF@?8?$AA@   1003abac     Client.obj
 0002:00009bb0       ??_C@_01KICIPPFI@?2?$AA@   1003abb0     Client.obj
 0002:00009bb4       ??_C@_01IHBHIGKO@?0?$AA@   1003abb4     Client.obj
 0002:00009bb8       ??_C@_01LFCBOECM@?4?$AA@   1003abb8     Client.obj
 0002:00009bbc       ??_C@_01KMDKNFGN@?1?$AA@   1003abbc     Client.obj
 0002:00009bc0       ??_C@_01FHEEJDEE@A?$AA@    1003abc0     Client.obj
 0002:00009bc4       ??_C@_01HMGJMAIH@B?$AA@    1003abc4     Client.obj
 0002:00009bc8       ??_C@_01CKDDGHAB@D?$AA@    1003abc8     Client.obj
 0002:00009bcc       ??_C@_01DDCIFGEA@E?$AA@    1003abcc     Client.obj
 0002:00009bd0       ??_C@_01BIAFAFID@F?$AA@    1003abd0     Client.obj
 0002:00009bd4       ??_C@_01BBODEMC@G?$AA@     1003abd4     Client.obj
 0002:00009bd8       ??_C@_01IGIGCIAN@H?$AA@    1003abd8     Client.obj
 0002:00009bdc       ??_C@_01JPJNBJEM@I?$AA@    1003abdc     Client.obj
 0002:00009be0       ??_C@_01LELAEKIP@J?$AA@    1003abe0     Client.obj
 0002:00009be4       ??_C@_01KNKLHLMO@K?$AA@    1003abe4     Client.obj
 0002:00009be8       ??_C@_01OCOKONAJ@L?$AA@    1003abe8     Client.obj
 0002:00009bec       ??_C@_01PLPBNMEI@M?$AA@    1003abec     Client.obj
 0002:00009bf0       ??_C@_01NANMIPIL@N?$AA@    1003abf0     Client.obj
 0002:00009bf4       ??_C@_01MJMHLOMK@O?$AA@    1003abf4     Client.obj
 0002:00009bf8       ??_C@_01EJNLAFE@P?$AA@     1003abf8     Client.obj
 0002:00009bfc       ??_C@_01BNIGIBBF@Q?$AA@    1003abfc     Client.obj
 0002:00009c00       ??_C@_01DGKLNCNG@R?$AA@    1003ac00     Client.obj
 0002:00009c04       ??_C@_01CPLAODJH@S?$AA@    1003ac04     Client.obj
 0002:00009c08       ??_C@_01GAPBHFFA@T?$AA@    1003ac08     Client.obj
 0002:00009c0c       ??_C@_01HJOKEEBB@U?$AA@    1003ac0c     Client.obj
 0002:00009c10       ??_C@_01FCMHBHNC@V?$AA@    1003ac10     Client.obj
 0002:00009c14       ??_C@_01ELNMCGJD@W?$AA@    1003ac14     Client.obj
 0002:00009c18       ??_C@_01MMEEDKFM@X?$AA@    1003ac18     Client.obj
 0002:00009c1c       ??_C@_01NFFPALBN@Y?$AA@    1003ac1c     Client.obj
 0002:00009c20       ??_C@_01POHCFINO@Z?$AA@    1003ac20     Client.obj
 0002:00009c24       ??_C@_04IFMJDJDK@NUM0?$AA@ 1003ac24     Client.obj
 0002:00009c2c       ??_C@_04JMNCAIHL@NUM1?$AA@ 1003ac2c     Client.obj
 0002:00009c34       ??_C@_04LHPPFLLI@NUM2?$AA@ 1003ac34     Client.obj
 0002:00009c3c       ??_C@_04KOOEGKPJ@NUM3?$AA@ 1003ac3c     Client.obj
 0002:00009c44       ??_C@_04OBKFPMDO@NUM4?$AA@ 1003ac44     Client.obj
 0002:00009c4c       ??_C@_04PILOMNHP@NUM5?$AA@ 1003ac4c     Client.obj
 0002:00009c54       ??_C@_04NDJDJOLM@NUM6?$AA@ 1003ac54     Client.obj
 0002:00009c5c       ??_C@_04MKIIKPPN@NUM7?$AA@ 1003ac5c     Client.obj
 0002:00009c64       ??_C@_04ENBALDDC@NUM8?$AA@ 1003ac64     Client.obj
 0002:00009c6c       ??_C@_04FEALICHD@NUM9?$AA@ 1003ac6c     Client.obj
 0002:00009c74       ??_C@_05OMNIFHIN@?$CF0?42f?$AA@ 1003ac74     Client.obj
 0002:00009c7c       ??_C@_03PKBINKFB@fov?$AA@  1003ac7c     Client.obj
 0002:00009c80       ??_C@_06INICNAFJ@smooth?$AA@ 1003ac80     Client.obj
 0002:00009c88       ??_C@_0O@CKADIIBO@recoil?4target?$AA@ 1003ac88     Client.obj
 0002:00009c98       ??_C@_0L@FCJHMIKD@recoil?4fov?$AA@ 1003ac98     Client.obj
 0002:00009ca4       ??_C@_0O@DODBJJCN@recoil?4smooth?$AA@ 1003aca4     Client.obj
 0002:00009cb4       ??_C@_0BA@PDANMHCL@recoil?4distance?$AA@ 1003acb4     Client.obj
 0002:00009cc4       ??_C@_06JJLAMBGK@target?$AA@ 1003acc4     Client.obj
 0002:00009ccc       ??_C@_08KHEJPMHI@headonly?$AA@ 1003accc     Client.obj
 0002:00009cd8       ??_C@_05EKJCMADO@delay?$AA@ 1003acd8     Client.obj
 0002:00009ce0       ??_C@_06JIPMIFNJ@aimbot?$AA@ 1003ace0     Client.obj
 0002:00009ce8       ??_C@_0L@OBMPENA@triggerbot?$AA@ 1003ace8     Client.obj
 0002:00009cf4       ??_C@_0P@FHMMMKIG@aimbot?4enabled?$AA@ 1003acf4     Client.obj
 0002:00009d04       ??_C@_0BC@BGNBEALC@aimbot?4deathmatch?$AA@ 1003ad04     Client.obj
 0002:00009d18       ??_C@_0BF@JMIGMABH@aimbot?4visible?4check?$AA@ 1003ad18     Client.obj
 0002:00009d30       ??_C@_0M@DAJMOLGK@aimbot?4type?$AA@ 1003ad30     Client.obj
 0002:00009d3c       ??_C@_0M@DDDBBNHG@aimbot?4mode?$AA@ 1003ad3c     Client.obj
 0002:00009d48       ??_C@_0O@MCLBJEAP@aimbot?4silent?$AA@ 1003ad48     Client.obj
 0002:00009d58       ??_C@_0BK@ODHMKICK@aimbot?4fov?4distance?4based?$AA@ 1003ad58     Client.obj
 0002:00009d74       ??_C@_0BD@EKJOMDAA@triggerbot?4enabled?$AA@ 1003ad74     Client.obj
 0002:00009d88       ??_C@_0BG@KHMOKMAM@triggerbot?4deathmatch?$AA@ 1003ad88     Client.obj
 0002:00009da0       ??_C@_0BI@NGLJJMGJ@triggerbot?4distance?4min?$AA@ 1003ada0     Client.obj
 0002:00009db8       ??_C@_0BI@MEDCHIAG@triggerbot?4distance?4max?$AA@ 1003adb8     Client.obj
 0002:00009dd0       ??_C@_0BJ@CMIFKCKJ@triggerbot?4visible?4check?$AA@ 1003add0     Client.obj
 0002:00009dec       ??_C@_0BE@PDBOBHIP@triggerbot?4key?4mode?$AA@ 1003adec     Client.obj
 0002:00009e00       ??_C@_0BE@MBLJPPII@triggerbot?4onlyzoom?$AA@ 1003ae00     Client.obj
 0002:00009e14       ??_C@_07JPMHJIDA@esp?4box?$AA@ 1003ae14     Client.obj
 0002:00009e1c       ??_C@_03KLMLIICN@esp?$AA@  1003ae1c     Client.obj
 0002:00009e20       ??_C@_0BA@CLGFPFJL@esp?4box?4outline?$AA@ 1003ae20     Client.obj
 0002:00009e30       ??_C@_0O@KPMGGJPN@esp?4box?4width?$AA@ 1003ae30     Client.obj
 0002:00009e40       ??_C@_0P@NEJIOEKG@esp?4box?4height?$AA@ 1003ae40     Client.obj
 0002:00009e50       ??_C@_07OANEMKOH@esp?4far?$AA@ 1003ae50     Client.obj
 0002:00009e58       ??_C@_0BC@PPDHICMC@esp?4aimbot?4hitbox?$AA@ 1003ae58     Client.obj
 0002:00009e6c       ??_C@_0BE@PLOBABND@esp?4triggerbot?4area?$AA@ 1003ae6c     Client.obj
 0002:00009e80       ??_C@_0N@JBHLLFBO@esp?4draw?4fov?$AA@ 1003ae80     Client.obj
 0002:00009e90       ??_C@_0L@LCLELNFK@esp?4weapon?$AA@ 1003ae90     Client.obj
 0002:00009e9c       ??_C@_09FIKKPDCI@esp?4sound?$AA@ 1003ae9c     Client.obj
 0002:00009ea8       ??_C@_0BB@FFECKLPI@knifebot?4enabled?$AA@ 1003aea8     Client.obj
 0002:00009ebc       ??_C@_08KAHFEIK@knifebot?$AA@ 1003aebc     Client.obj
 0002:00009ec8       ??_C@_0BC@LJBHIDGJ@knifebot?4distance?$AA@ 1003aec8     Client.obj
 0002:00009edc       ??_C@_09BMFPIFNB@misc?4bhop?$AA@ 1003aedc     Client.obj
 0002:00009ee8       ??_C@_04GDGONPK@misc?$AA@  1003aee8     Client.obj
 0002:00009ef0       ??_C@_0N@FJHFNIDK@misc?4noflash?$AA@ 1003aef0     Client.obj
 0002:00009f00       ??_C@_0BF@PJNEBLHC@misc?4draw?4punchangle?$AA@ 1003af00     Client.obj
 0002:00009f18       ??_C@_0O@GKIHGCAE@misc?4fastzoom?$AA@ 1003af18     Client.obj
 0002:00009f28       ??_C@_0N@PGEPEKIF@misc?4lambert?$AA@ 1003af28     Client.obj
 0002:00009f38       ??_C@_06PMLBAMM@?5?$CF0?42f?$AA@ 1003af38     Client.obj
 0002:00009f40       ??_C@_0M@CPMLOJNN@aim?4enabled?$AA@ 1003af40     Client.obj
 0002:00009f4c       ??_C@_0L@MCFLGNEH@aim?4silent?$AA@ 1003af4c     Client.obj
 0002:00009f58       ??_C@_08BMJDNCOO@aim?4type?$AA@ 1003af58     Client.obj
 0002:00009f64       ??_C@_08BPDOCEPC@aim?4mode?$AA@ 1003af64     Client.obj
 0002:00009f70       ??_C@_0P@FGPFGDFJ@aim?4deathmatch?$AA@ 1003af70     Client.obj
 0002:00009f80       ??_C@_0BC@LLJLGMKG@aim?4visible?4check?$AA@ 1003af80     Client.obj
 0002:00009f94       ??_C@_0BH@HFNKNHF@aim?4fov?4distance?4based?$AA@ 1003af94     Client.obj
 0002:00009fac       ??_C@_0P@GKBGKIFB@aimbot?4weapons?$AA@ 1003afac     Client.obj
 0002:00009fbc       ??_C@_07HGIKPONG@aim?4fov?$AA@ 1003afbc     Client.obj
 0002:00009fc4       ??_C@_0L@IGBBMOBO@aim?4smooth?$AA@ 1003afc4     Client.obj
 0002:00009fd0       ??_C@_0L@JCCDNPCN@aim?4target?$AA@ 1003afd0     Client.obj
 0002:00009fdc       ??_C@_0BE@JECIBGJO@aim?4recoil?4distance?$AA@ 1003afdc     Client.obj
 0002:00009ff0       ??_C@_0BC@NDNEHKMD@aim?4recoil?4target?$AA@ 1003aff0     Client.obj
 0002:0000a004       ??_C@_0P@IPFCCGAM@aim?4recoil?4fov?$AA@ 1003b004     Client.obj
 0002:0000a014       ??_C@_0BC@MHOGGLPA@aim?4recoil?4smooth?$AA@ 1003b014     Client.obj
 0002:0000a028       ??_C@_09CFDKGPB@aim?4delay?$AA@ 1003b028     Client.obj
 0002:0000a034       ??_C@_0BA@HPKBLBGJ@trigger?4enabled?$AA@ 1003b034     Client.obj
 0002:0000a044       ??_C@_0BD@ELKHGKNP@trigger?4deathmatch?$AA@ 1003b044     Client.obj
 0002:0000a058       ??_C@_0BF@OKLIBFJ@trigger?4distance?4min?$AA@ 1003b058     Client.obj
 0002:0000a070       ??_C@_0BF@BMCAGFDG@trigger?4distance?4max?$AA@ 1003b070     Client.obj
 0002:0000a088       ??_C@_0BG@KIEIABI@trigger?4visible?4check?$AA@ 1003b088     Client.obj
 0002:0000a0a0       ??_C@_0BB@MHEFPBAB@trigger?4key?4mode?$AA@ 1003b0a0     Client.obj
 0002:0000a0b4       ??_C@_0BB@PFOCBJAG@trigger?4onlyzoom?$AA@ 1003b0b4     Client.obj
 0002:0000a0c8       ??_C@_0BD@HHEEKBNH@triggerbot?4weapons?$AA@ 1003b0c8     Client.obj
 0002:0000a0dc       ??_C@_0M@PMAKGAD@trigger?4fov?$AA@ 1003b0dc     Client.obj
 0002:0000a0e8       ??_C@_0BB@COCCAOIH@trigger?4headonly?$AA@ 1003b0e8     Client.obj
 0002:0000a0fc       ??_C@_04EMMDIJJL@save?$AA@ 1003b0fc     Client.obj
 0002:0000a104       ??_C@_0BA@JNKKGGIP@Vermillion?5Hack?$AA@ 1003b104     Client.obj
 0002:0000a114       ??_C@_02DKCKIIND@?$CFs?$AA@ 1003b114     Client.obj
 0002:0000a118       ??_C@_0M@FEHNMLCD@End?5of?5List?$AA@ 1003b118     Client.obj
 0002:0000a124       ??_C@_09IAKGKKJP@svc_sound?$AA@ 1003b124     Client.obj
 0002:0000a130       ??_C@_08PEHACIKG@ResetHUD?$AA@ 1003b130     Client.obj
 0002:0000a13c       ??_C@_06NJNDMID@SetFOV?$AA@ 1003b13c     Client.obj
 0002:0000a144       ??_C@_08BHMNHEND@TeamInfo?$AA@ 1003b144     Client.obj
 0002:0000a150       ??_C@_09PEGKEGNI@CurWeapon?$AA@ 1003b150     Client.obj
 0002:0000a15c       ??_C@_08DMGIIAG@DeathMsg?$AA@ 1003b15c     Client.obj
 0002:0000a168       ??_C@_05BDDOEAPG@AmmoX?$AA@ 1003b168     Client.obj
 0002:0000a170       ??_C@_0L@JMLCHIOL@WeaponList?$AA@ 1003b170     Client.obj
 0002:0000a17c       ??_C@_0P@JLMFFFCK@recoil?4control?$AA@ 1003b17c     Client.obj
 0002:0000a18c       ??_C@_0N@JPKBJKMG@recoil?4delay?$AA@ 1003b18c     Client.obj
 0002:0000a19c       ??_C@_04CLCEDBPF@time?$AA@ 1003b19c     Client.obj
 0002:0000a1a4       ??_C@_0P@LHGBDINM@triggerbot?4key?$AA@ 1003b1a4     Client.obj
 0002:0000a1b4       ??_C@_02IKAHHCAI@?$CFi?$AA@ 1003b1b4     Client.obj
 0002:0000a1b8       ??_C@_06IDDCOJOK@shield?$AA@ 1003b1b8     Client.obj
 0002:0000a1c0       ??_C@_0BE@JIFKOAMH@TRIGGERBOT?3?5ENABLED?$AA@ 1003b1c0     Client.obj
 0002:0000a1d4       ??_C@_0BF@DJBMPODN@TRIGGERBOT?3?5DISABLED?$AA@ 1003b1d4     Client.obj
 0002:0000a1ec       ??_C@_0BD@OLBABOEK@vector?$DMT?$DO?5too?5long?$AA@ 1003b1ec     Client.obj
 0002:0000a200       ??_C@_0BC@KBDMBKEH@deque?$DMT?$DO?5too?5long?$AA@ 1003b200     Client.obj
 0002:0000a214       ??_C@_0BI@CFPLBAOH@invalid?5string?5position?$AA@ 1003b214     Client.obj
 0002:0000a22c       ??_C@_0BA@JFNIOLAK@string?5too?5long?$AA@ 1003b22c     Client.obj
 0002:0000a240       ??_7?$basic_streambuf@DU?$char_traits@D@std@@@std@@6B@ 1003b240     Client.obj
 0002:0000a280       ??_7error_category@std@@6B@ 1003b280     Client.obj
 0002:0000a29c       ??_7_Iostream_error_category@std@@6B@ 1003b29c     Client.obj
 0002:0000a2b8       ??_7ios_base@std@@6B@      1003b2b8     Client.obj
 0002:0000a2c0       ?ny@@3HA                   1003b2c0     Client.obj
 0002:0000a2c4       ?nx@@3HA                   1003b2c4     Client.obj
 0002:0000a2c8       ?seed_table@@3PAIA         1003b2c8     nospread.obj
 0002:0000a6c8       ?g_Aim2@@3Uaim_mode2_s@@A  1003b6c8     Client.obj
 0002:0000a6e8       ??_7_System_error@std@@6B@ 1003b6e8     Client.obj
 0002:0000a6f4       ??_7?$basic_ostream@DU?$char_traits@D@std@@@std@@6B@ 1003b6f4     Client.obj
 0002:0000a6fc       ??_7system_error@std@@6B@  1003b6fc     Client.obj
 0002:0000a708       ??_7failure@ios_base@std@@6B@ 1003b708     Client.obj
 0002:0000a710       ??_C@_0BH@KPLDILJD@NtSetInformationThread?$AA@ 1003b710     main.obj
 0002:0000a728       ??_C@_09FLKFJBLM@ntdll?4dll?$AA@ 1003b728     main.obj
 0002:0000a734       ??_C@_0N@DOKAJOHF@opengl32?4dll?$AA@ 1003b734     main.obj
 0002:0000a744       ??_C@_0N@CKFNNHOO@glReadPixels?$AA@ 1003b744     main.obj
 0002:0000a758       ??_7?$basic_filebuf@DU?$char_traits@D@std@@@std@@6B@ 1003b758     main.obj
 0002:0000a798       ??_7?$basic_ofstream@DU?$char_traits@D@std@@@std@@6B@ 1003b798     main.obj
 0002:0000a79c       ??_8?$basic_ofstream@DU?$char_traits@D@std@@@std@@7B@ 1003b79c     main.obj
 0002:0000a7a4       ??_C@_0L@HLIDJPHH@GameUI?4dll?$AA@ 1003b7a4     Offset.obj
 0002:0000a7b0       ??_C@_08JDPKLOGM@vgui?4dll?$AA@ 1003b7b0     Offset.obj
 0002:0000a7bc       ??_C@_09CODMFJIB@vgui2?4dll?$AA@ 1003b7bc     Offset.obj
 0002:0000a7c8       ??_C@_09GPBAJDLJ@d3dim?4dll?$AA@ 1003b7c8     Offset.obj
 0002:0000a7d4       ??_C@_06IONNPIKE@hw?4dll?$AA@ 1003b7d4     Offset.obj
 0002:0000a7dc       ??_C@_06OLAEDAJA@sw?4dll?$AA@ 1003b7dc     Offset.obj
 0002:0000a7e4       ??_C@_0BH@DALDELCP@Invalid?5module?5handle?4?$AA@ 1003b7e4     Offset.obj
 0002:0000a7fc       ??_C@_0L@PHFEFMEF@client?4dll?$AA@ 1003b7fc     Offset.obj
 0002:0000a808       ??_C@_0M@HFFOIJBL@Fatal?5Error?$AA@ 1003b808     Offset.obj
 0002:0000a814       ??_C@_0L@OBKHMDDA@ScreenFade?$AA@ 1003b814     Offset.obj
 0002:0000a820       ??_C@_0CB@JMEGLHM@Couldn?8t?5find?5ClientPtr?5pointer?4@ 1003b820     Offset.obj
 0002:0000a844       ??_C@_0CB@IMHHPNKI@Couldn?8t?5find?5EnginePtr?5pointer?4@ 1003b844     Offset.obj
 0002:0000a868       ??_C@_0CB@LNNOMKEE@Couldn?8t?5find?5StudioPtr?5pointer?4@ 1003b868     Offset.obj
 0002:0000a88c       ??_C@_0CG@FMKLHNIB@Couldn?8t?5find?5UserMsgBase?5?$CD1?5poi@ 1003b88c     Offset.obj
 0002:0000a8b4       ??_C@_0CG@MFEJBLIA@Couldn?8t?5find?5UserMsgBase?5?$CD2?5poi@ 1003b8b4     Offset.obj
 0002:0000a8dc       ??_C@_0BN@HJPMMOGN@x?$DP?$DP?$DP?$DPxxx?$DP?$DP?$DP?$DPxxx?$DPxx?$DP?$DP?$DP?$DPxxxxxx?$AA@ 1003b8dc     Offset.obj
 0002:0000a8fc       ??_C@_0BN@KBGFBHLD@?$LP?$PP?$PP?$PP?$PP?$IL?$AE?$LF?$PP?$PP?$PP?$PP?$IF?$MAt?$PP?$IB?$PP?$PP?$PP?$PP?$PP?$HP?$AE?$IL?$AP?k?$AF?$AA@ 1003b8fc     Offset.obj
 0002:0000a91c       ??_C@_0CF@BMNGFDFA@S_StartDynamicSound?3?5?$CFs?5volume?5?$DO@ 1003b91c     Offset.obj
 0002:0000a944       ??_C@_0CM@BCGJHGNC@Couldn?8t?5find?5PreS_DynamicSound?5@ 1003b944     Offset.obj
 0002:0000a970       ??_C@_0CM@ILILBAND@Couldn?8t?5find?5PreS_DynamicSound?5@ 1003b970     Offset.obj
 0002:0000a99c       ??_C@_09EBNLPNDN@terrorist?$AA@ 1003b99c     UserMsgs.obj
 0002:0000a9a8       ??_C@_02BHMOPGG@ct?$AA@    1003b9a8     UserMsgs.obj
 0002:0000a9ac       ??_C@_0BG@PPNIOJEM@ERROR?3?5Couldn?8t?5find?5?$AA@ 1003b9ac     Utils.obj
 0002:0000a9c4       ??_C@_09HBIBHIAM@?5message?4?$AA@ 1003b9c4     Utils.obj
 0002:0000a9d0       __real@3a83126f            1003b9d0     nospread.obj
 0002:0000a9d4       __real@3b83126f            1003b9d4     nospread.obj
 0002:0000a9d8       __real@3bb43958            1003b9d8     nospread.obj
 0002:0000a9dc       __real@3bc49ba6            1003b9dc     nospread.obj
 0002:0000a9e0       __real@3be56042            1003b9e0     nospread.obj
 0002:0000a9e4       __real@3c1db22d            1003b9e4     nospread.obj
 0002:0000a9e8       __real@3c23d70a            1003b9e8     Client.obj
 0002:0000a9ec       __real@3c449ba6            1003b9ec     nospread.obj
 0002:0000a9f0       __real@3c99695e            1003b9f0     nospread.obj
 0002:0000a9f4       __real@3ca0dbad            1003b9f4     nospread.obj
 0002:0000a9f8       __real@3ca3d70a            1003b9f8     nospread.obj
 0002:0000a9fc       __real@3cab4741            1003b9fc     nospread.obj
 0002:0000aa00       __real@3cac0831            1003ba00     nospread.obj
 0002:0000aa04       __real@3cb8ac19            1003ba04     nospread.obj
 0002:0000aa08       __real@3cc90c4e            1003ba08     nospread.obj
 0002:0000aa0c       __real@3cdc67e0            1003ba0c     nospread.obj
 0002:0000aa10       __real@3cdd2f1b            1003ba10     nospread.obj
 0002:0000aa14       __real@3cf2bcb6            1003ba14     nospread.obj
 0002:0000aa18       __real@3cf5c28f            1003ba18     nospread.obj
 0002:0000aa1c       __real@3d0ccccd            1003ba1c     nospread.obj
 0002:0000aa20       __real@3d48b439            1003ba20     nospread.obj
 0002:0000aa24       __real@3d5d2f1b            1003ba24     nospread.obj
 0002:0000aa28       __real@3d656042            1003ba28     nospread.obj
 0002:0000aa2c       __real@3d83126f            1003ba2c     nospread.obj
 0002:0000aa30       __real@3d841893            1003ba30     nospread.obj
 0002:0000aa34       __real@3d99999a            1003ba34     nospread.obj
 0002:0000aa38       __real@3da9fbe7            1003ba38     nospread.obj
 0002:0000aa3c       __real@3dae147b            1003ba3c     nospread.obj
 0002:0000aa40       __real@3db22d0e            1003ba40     nospread.obj
 0002:0000aa44       __real@3dba2e7f            1003ba44     nospread.obj
 0002:0000aa48       __real@3dbfc3b5            1003ba48     nospread.obj
 0002:0000aa4c       __real@3dc9118c            1003ba4c     nospread.obj
 0002:0000aa50       __real@3dcccccd            1003ba50     nospread.obj
 0002:0000aa54       __real@3dd6188b            1003ba54     nospread.obj
 0002:0000aa58       __real@3dd70a3d            1003ba58     nospread.obj
 0002:0000aa5c       __real@3de6d82c            1003ba5c     nospread.obj
 0002:0000aa60       __real@3deb851f            1003ba60     nospread.obj
 0002:0000aa64       __real@3df5c28f            1003ba64     nospread.obj
 0002:0000aa68       __real@3dfb506e            1003ba68     nospread.obj
 0002:0000aa6c       __real@3e028f5c            1003ba6c     nospread.obj
 0002:0000aa70       __real@3e05a1cb            1003ba70     nospread.obj
 0002:0000aa74       __real@3e09c0ec            1003ba74     nospread.obj
 0002:0000aa78       __real@3e147ae1            1003ba78     nospread.obj
 0002:0000aa7c       __real@3e17b5f2            1003ba7c     nospread.obj
 0002:0000aa80       __real@3e19999a            1003ba80     nospread.obj
 0002:0000aa84       __real@3e1eb852            1003ba84     nospread.obj
 0002:0000aa88       __real@3e3851ec            1003ba88     nospread.obj
 0002:0000aa8c       __real@3e4ccccd            1003ba8c     nospread.obj
 0002:0000aa90       __real@3e577319            1003ba90     nospread.obj
 0002:0000aa94       __real@3e604189            1003ba94     nospread.obj
 0002:0000aa98       __real@3e6147ae            1003ba98     nospread.obj
 0002:0000aa9c       __real@3e61cac1            1003ba9c     nospread.obj
 0002:0000aaa0       __real@3e62d0e5            1003baa0     nospread.obj
 0002:0000aaa4       __real@3e6353f8            1003baa4     nospread.obj
 0002:0000aaa8       __real@3e656042            1003baa8     nospread.obj
 0002:0000aaac       __real@3e65e354            1003baac     nospread.obj
 0002:0000aab0       __real@3e7ad7f2a0000000    1003bab0     Client.obj
 0002:0000aab8       __real@3e7ae148            1003bab8     nospread.obj
 0002:0000aabc       __real@3e800000            1003babc     nospread.obj
 0002:0000aac0       __real@3e99999a            1003bac0     nospread.obj
 0002:0000aac4       __real@3edeb852            1003bac4     nospread.obj
 0002:0000aac8       __real@3ef0000000000000    1003bac8     nospread.obj
 0002:0000aad0       __real@3efd70a4            1003bad0     nospread.obj
 0002:0000aad4       __real@3f000000            1003bad4     nospread.obj
 0002:0000aad8       __real@3f0a3d71            1003bad8     nospread.obj
 0002:0000aadc       __real@3f0ccccd            1003badc     nospread.obj
 0002:0000aae0       __real@3f19999a            1003bae0     nospread.obj
 0002:0000aae4       __real@3f39999a            1003bae4     nospread.obj
 0002:0000aae8       __real@3f400000            1003bae8     weaponslist.obj
 0002:0000aaec       __real@3f4a3d71            1003baec     weaponslist.obj
 0002:0000aaf0       __real@3f4ccccd            1003baf0     weaponslist.obj
 0002:0000aaf4       __real@3f4f5c29            1003baf4     weaponslist.obj
 0002:0000aaf8       __real@3f51eb85            1003baf8     weaponslist.obj
 0002:0000aafc       __real@3f570a3d            1003bafc     weaponslist.obj
 0002:0000ab00       __real@3f59999a            1003bb00     weaponslist.obj
 0002:0000ab08       __real@3f5a36e2e0000000    1003bb08     nospread.obj
 0002:0000ab10       __real@3f6147ae            1003bb10     nospread.obj
 0002:0000ab14       __real@3f628f5c            1003bb14     weaponslist.obj
 0002:0000ab18       __real@3f666666            1003bb18     nospread.obj
 0002:0000ab1c       __real@3f6b851f            1003bb1c     nospread.obj
 0002:0000ab20       __real@3f733333            1003bb20     weaponslist.obj
 0002:0000ab24       __real@3f747ae1            1003bb24     weaponslist.obj
 0002:0000ab28       __real@3f75c28f            1003bb28     weaponslist.obj
 0002:0000ab2c       __real@3f7851ec            1003bb2c     weaponslist.obj
 0002:0000ab30       __real@3f7ae148            1003bb30     weaponslist.obj
 0002:0000ab34       __real@3f7d70a4            1003bb34     weaponslist.obj
 0002:0000ab38       __real@3f8ccccd            1003bb38     Client.obj
 0002:0000ab40       __real@3f947ae147ae147b    1003bb40     nospread.obj
 0002:0000ab48       __real@3f949667b5f1bef5    1003bb48     nospread.obj
 0002:0000ab50       __real@3f949ba5e353f7cf    1003bb50     nospread.obj
 0002:0000ab58       __real@3f94b5dcc63f1412    1003bb58     nospread.obj
 0002:0000ab60       __real@3f94c2f837b4a234    1003bb60     nospread.obj
 0002:0000ab68       __real@3f94d013a92a3055    1003bb68     nospread.obj
 0002:0000ab70       __real@3f94d898b2e9ccb8    1003bb70     nospread.obj
 0002:0000ab78       __real@3f94ea4a8c154c98    1003bb78     nospread.obj
 0002:0000ab80       __real@3f94f0d844d013a9    1003bb80     nospread.obj
 0002:0000ab88       __real@3f9501e2584f4c6e    1003bb88     nospread.obj
 0002:0000ab90       __real@3f950268900c521e    1003bb90     nospread.obj
 0002:0000ab98       __real@3f9516db0dd82fd7    1003bb98     nospread.obj
 0002:0000aba0       __real@3f951cc100e6afcd    1003bba0     nospread.obj
 0002:0000aba8       __real@3f970a3d70a3d70a    1003bba8     nospread.obj
 0002:0000abb0       __real@3f9999999999999a    1003bbb0     nospread.obj
 0002:0000abb8       __real@3f999999a0000000    1003bbb8     nospread.obj
 0002:0000abc0       __real@3f99999a            1003bbc0     Client.obj
 0002:0000abc8       __real@3f99e83e425aee63    1003bbc8     nospread.obj
 0002:0000abd0       __real@3f9a0902de00d1b7    1003bbd0     nospread.obj
 0002:0000abd8       __real@3f9a2339c0ebedfa    1003bbd8     nospread.obj
 0002:0000abe0       __real@3f9a2bbecaab8a5d    1003bbe0     nospread.obj
 0002:0000abe8       __real@3f9a43fe5c91d14e    1003bbe8     nospread.obj
 0002:0000abf0       __real@3f9a558ea7ce0fc3    1003bbf0     nospread.obj
 0002:0000abf8       __real@3f9a8438088509c0    1003bbf8     nospread.obj
 0002:0000ac00       __real@3f9c28f5c28f5c29    1003bc00     nospread.obj
 0002:0000ac08       __real@3f9cac0840000000    1003bc08     nospread.obj
 0002:0000ac10       __real@3f9eb851eb851eb8    1003bc10     nospread.obj
 0002:0000ac18       __real@3fa00000            1003bc18     nospread.obj
 0002:0000ac20       __real@3fa1eb851eb851ec    1003bc20     nospread.obj
 0002:0000ac28       __real@3fa1f8a0902de00d    1003bc28     nospread.obj
 0002:0000ac30       __real@3fa1ff2e48e8a71e    1003bc30     nospread.obj
 0002:0000ac38       __real@3fa20029f16b11c7    1003bc38     nospread.obj
 0002:0000ac40       __real@3fa2006d0d49949f    1003bc40     nospread.obj
 0002:0000ac48       __real@3fa20c49ba5e353f    1003bc48     nospread.obj
 0002:0000ac50       __real@3fa20d4562e09fe8    1003bc50     nospread.obj
 0002:0000ac58       __real@3fa21a859ae7aafd    1003bc58     nospread.obj
 0002:0000ac60       __real@3fa21aa3f034b0e2    1003bc60     nospread.obj
 0002:0000ac68       __real@3fa226809d495183    1003bc68     nospread.obj
 0002:0000ac70       __real@3fa25460aa64c2f8    1003bc70     nospread.obj
 0002:0000ac78       __real@3fa26e978d4fdf3b    1003bc78     nospread.obj
 0002:0000ac80       __real@3fa29057d1782d38    1003bc80     nospread.obj
 0002:0000ac88       __real@3fa292a305532618    1003bc88     nospread.obj
 0002:0000ac90       __real@3fa29db65ecc3e32    1003bc90     nospread.obj
 0002:0000ac98       __real@3fa2b2bfdb4cc250    1003bc98     nospread.obj
 0002:0000aca0       __real@3fa2ccf6be37de94    1003bca0     nospread.obj
 0002:0000aca8       __real@3fa2d77318fc5048    1003bca8     nospread.obj
 0002:0000acb0       __real@3fa2e48e8a71de6a    1003bcb0     nospread.obj
 0002:0000acb8       __real@3fa2ec28b2a6b0d9    1003bcb8     nospread.obj
 0002:0000acc0       __real@3fa2f837b4a2339c    1003bcc0     nospread.obj
 0002:0000acc8       __real@3fa2f95823b61b38    1003bcc8     nospread.obj
 0002:0000acd0       __real@3fa305532617c1be    1003bcd0     nospread.obj
 0002:0000acd8       __real@3fa3333333333333    1003bcd8     nospread.obj
 0002:0000ace0       __real@3fa335d249e44fa0    1003bce0     nospread.obj
 0002:0000ace8       __real@3fa350092ccf6be3    1003bce8     nospread.obj
 0002:0000acf0       __real@3fa47ae140000000    1003bcf0     nospread.obj
 0002:0000acf8       __real@3fa47ae147ae147b    1003bcf8     nospread.obj
 0002:0000ad00       __real@3fa5e9e1b089a027    1003bd00     nospread.obj
 0002:0000ad08       __real@3fa604189374bc6a    1003bd08     nospread.obj
 0002:0000ad10       __real@3fa628240b780347    1003bd10     nospread.obj
 0002:0000ad18       __real@3fa64840e1719f80    1003bd18     nospread.obj
 0002:0000ad20       __real@3fa64f765fd8adac    1003bd20     nospread.obj
 0002:0000ad28       __real@3fa66277c45cbbc3    1003bd28     nospread.obj
 0002:0000ad30       __real@3fa66c6731678119    1003bd30     nospread.obj
 0002:0000ad38       __real@3fa681a9b8cb8e08    1003bd38     nospread.obj
 0002:0000ad40       __real@3fa68db8bac710cb    1003bd40     nospread.obj
 0002:0000ad48       __real@3fa68eb463497b74    1003bd48     nospread.obj
 0002:0000ad50       __real@3fa6ea747d805e5f    1003bd50     nospread.obj
 0002:0000ad58       __real@3fa70a3d70a3d70a    1003bd58     nospread.obj
 0002:0000ad60       __real@3fa7570aa8d06e42    1003bd60     nospread.obj
 0002:0000ad68       __real@3fa7af111833dc03    1003bd68     nospread.obj
 0002:0000ad70       __real@3fa999999999999a    1003bd70     nospread.obj
 0002:0000ad78       __real@3fac28f5c28f5c29    1003bd78     nospread.obj
 0002:0000ad80       __real@3faeb851e0000000    1003bd80     nospread.obj
 0002:0000ad88       __real@3fb1eb851eb851ec    1003bd88     nospread.obj
 0002:0000ad90       __real@3fb33333            1003bd90     nospread.obj
 0002:0000ad98       __real@3fb3333333333333    1003bd98     nospread.obj
 0002:0000ada0       __real@3fb47ae140000000    1003bda0     nospread.obj
 0002:0000ada8       __real@3fb47ae147ae147b    1003bda8     nospread.obj
 0002:0000adb0       __real@3fb851eb851eb852    1003bdb0     nospread.obj
 0002:0000adb8       __real@3fb999999999999a    1003bdb8     nospread.obj
 0002:0000adc0       __real@3fbd70a3d70a3d71    1003bdc0     nospread.obj
 0002:0000adc8       __real@3fc00000            1003bdc8     Client.obj
 0002:0000add0       __real@3fc0000000000000    1003bdd0     nospread.obj
 0002:0000add8       __real@3fc0a3d70a3d70a4    1003bdd8     nospread.obj
 0002:0000ade0       __real@3fc3333333333333    1003bde0     nospread.obj
 0002:0000ade8       __real@3fc51eb851eb851f    1003bde8     nospread.obj
 0002:0000adf0       __real@3fc6666666666666    1003bdf0     nospread.obj
 0002:0000adf8       __real@3fc7ae147ae147ae    1003bdf8     nospread.obj
 0002:0000ae00       __real@3fc999999999999a    1003be00     nospread.obj
 0002:0000ae08       __real@3fca3d71            1003be08     Client.obj
 0002:0000ae10       __real@3fcbd70a3d70a3d7    1003be10     nospread.obj
 0002:0000ae18       __real@3fcccccccccccccd    1003be18     nospread.obj
 0002:0000ae20       __real@3fcccccd            1003be20     Client.obj
 0002:0000ae28       __real@3fceb851eb851eb8    1003be28     nospread.obj
 0002:0000ae30       __real@3fd0000000000000    1003be30     nospread.obj
 0002:0000ae38       __real@3fd051eb851eb852    1003be38     nospread.obj
 0002:0000ae40       __real@3fd199999999999a    1003be40     nospread.obj
 0002:0000ae48       __real@3fd33333            1003be48     nospread.obj
 0002:0000ae50       __real@3fd3333333333333    1003be50     nospread.obj
 0002:0000ae58       __real@3fd3333340000000    1003be58     nospread.obj
 0002:0000ae60       __real@3fd4cccccccccccd    1003be60     nospread.obj
 0002:0000ae68       __real@3fd6666660000000    1003be68     nospread.obj
 0002:0000ae70       __real@3fd6666666666666    1003be70     nospread.obj
 0002:0000ae78       __real@3fd8000000000000    1003be78     nospread.obj
 0002:0000ae80       __real@3fd999999999999a    1003be80     nospread.obj
 0002:0000ae88       __real@3fdb851eb851eb85    1003be88     nospread.obj
 0002:0000ae90       __real@3fdcccccc0000000    1003be90     nospread.obj
 0002:0000ae98       __real@3fdccccccccccccd    1003be98     nospread.obj
 0002:0000aea0       __real@3fdd70a4            1003bea0     Client.obj
 0002:0000aea4       __real@3fdeb852            1003bea4     Client.obj
 0002:0000aea8       __real@3fe0000000000000    1003bea8     Client.obj
 0002:0000aeb0       __real@3fe199999999999a    1003beb0     nospread.obj
 0002:0000aeb8       __real@3fe3333333333333    1003beb8     nospread.obj
 0002:0000aec0       __real@3fe4cccccccccccd    1003bec0     nospread.obj
 0002:0000aec8       __real@3fe7333333333333    1003bec8     nospread.obj
 0002:0000aed0       __real@3fea3d71            1003bed0     Client.obj
 0002:0000aed8       __real@3feb333333333333    1003bed8     Client.obj
 0002:0000aee0       __real@3fec28f5c28f5c29    1003bee0     nospread.obj
 0002:0000aee8       __real@3feccccccccccccd    1003bee8     nospread.obj
 0002:0000aef0       __real@3feccccd            1003bef0     Client.obj
 0002:0000aef8       __real@3fed70a3d70a3d71    1003bef8     nospread.obj
 0002:0000af00       __real@3fef5c28f5c28f5c    1003bf00     nospread.obj
 0002:0000af08       __real@3ff3333333333333    1003bf08     nospread.obj
 0002:0000af10       __real@3ff4000000000000    1003bf10     Client.obj
 0002:0000af18       __real@3ff4cccccccccccd    1003bf18     nospread.obj
 0002:0000af20       __real@3ff6666666666666    1003bf20     nospread.obj
 0002:0000af28       __real@3ff8000000000000    1003bf28     nospread.obj
 0002:0000af30       __real@3ffa666666666666    1003bf30     nospread.obj
 0002:0000af38       __real@40000000            1003bf38     Client.obj
 0002:0000af40       __real@4000000000000000    1003bf40     Client.obj
 0002:0000af48       __real@400921fb54442d18    1003bf48     Client.obj
 0002:0000af50       __real@4014000000000000    1003bf50     Client.obj
 0002:0000af58       __real@4024000000000000    1003bf58     Client.obj
 0002:0000af60       __real@4026000000000000    1003bf60     Client.obj
 0002:0000af68       __real@4034000000000000    1003bf68     Client.obj
 0002:0000af70       __real@40400000            1003bf70     Client.obj
 0002:0000af78       __real@4049800000000000    1003bf78     Client.obj
 0002:0000af80       __real@4056800000000000    1003bf80     Client.obj
 0002:0000af88       __real@4059000000000000    1003bf88     nospread.obj
 0002:0000af90       __real@405e000000000000    1003bf90     Client.obj
 0002:0000af98       __real@4065e00000000000    1003bf98     nospread.obj
 0002:0000afa0       __real@4066800000000000    1003bfa0     Client.obj
 0002:0000afa8       __real@4069000000000000    1003bfa8     nospread.obj
 0002:0000afb0       __real@406a400000000000    1003bfb0     nospread.obj
 0002:0000afb8       __real@406ae00000000000    1003bfb8     nospread.obj
 0002:0000afc0       __real@406b800000000000    1003bfc0     nospread.obj
 0002:0000afc8       __real@406b833340000000    1003bfc8     nospread.obj
 0002:0000afd0       __real@406fe00000000000    1003bfd0     Client.obj
 0002:0000afd8       __real@4076800000000000    1003bfd8     Client.obj
 0002:0000afe0       __real@408f400000000000    1003bfe0     Client.obj
 0002:0000afe8       __real@40a00000            1003bfe8     Client.obj
 0002:0000afec       __real@40c00000            1003bfec     nospread.obj
 0002:0000aff0       __real@40c0000000000000    1003bff0     nospread.obj
 0002:0000aff8       __real@40e00000            1003bff8     Client.obj
 0002:0000b000       __real@40e6b48000000000    1003c000     Client.obj
 0002:0000b008       __real@41200000            1003c008     nospread.obj
 0002:0000b010       __real@4125f90000000000    1003c010     Client.obj
 0002:0000b018       __real@412a3ec000000000    1003c018     Client.obj
 0002:0000b020       __real@412e600000000000    1003c020     Client.obj
 0002:0000b028       __real@412e848000000000    1003c028     Client.obj
 0002:0000b030       __real@41300000            1003c030     Client.obj
 0002:0000b038       __real@413b774000000000    1003c038     Client.obj
 0002:0000b040       __real@413fa40000000000    1003c040     Client.obj
 0002:0000b048       __real@41a00000            1003c048     Client.obj
 0002:0000b04c       __real@42480000            1003c04c     Client.obj
 0002:0000b050       __real@424c0000            1003c050     Client.obj
 0002:0000b054       __real@42a20000            1003c054     nospread.obj
 0002:0000b058       __real@42b20000            1003c058     Client.obj
 0002:0000b05c       __real@42b40000            1003c05c     Client.obj
 0002:0000b060       __real@42c80000            1003c060     Client.obj
 0002:0000b064       __real@430c0000            1003c064     nospread.obj
 0002:0000b068       __real@432a0000            1003c068     nospread.obj
 0002:0000b06c       __real@43340000            1003c06c     Client.obj
 0002:0000b070       __real@437f0000            1003c070     Client.obj
 0002:0000b074       __real@43870000            1003c074     Client.obj
 0002:0000b078       __real@43b40000            1003c078     Client.obj
 0002:0000b07c       __real@447a0000            1003c07c     Client.obj
 0002:0000b080       __real@453b8000            1003c080     Client.obj
 0002:0000b084       __real@45800000            1003c084     weaponslist.obj
 0002:0000b088       __real@459c4000            1003c088     Client.obj
 0002:0000b08c       __real@46000000            1003c08c     weaponslist.obj
 0002:0000b090       __real@497423f0            1003c090     Client.obj
 0002:0000b094       __real@4f800000            1003c094     nospread.obj
 0002:0000b098       __real@bf000000            1003c098     nospread.obj
 0002:0000b09c       __real@bf800000            1003c09c     Client.obj
 0002:0000b0a0       __real@bff0000000000000    1003c0a0     nospread.obj
 0002:0000b0a8       __real@c2b20000            1003c0a8     Client.obj
 0002:0000b0ac       __real@c3340000            1003c0ac     Client.obj
 0002:0000b0b0       __OP_ATAN2jmptab           1003c0b0     libucrt:87triga.obj
 0002:0000b168       __load_config_used         1003c168     LIBCMT:loadcfg.obj
 0002:0000b1c4       __tls_used                 1003c1c4     LIBCMT:tlssup.obj
 0002:0000b1dc       ??_R4type_info@@6B@        1003c1dc     LIBCMT:std_type_info_static.obj
 0002:0000b1f0       ??_R3type_info@@8          1003c1f0     LIBCMT:std_type_info_static.obj
 0002:0000b200       ??_R2type_info@@8          1003c200     LIBCMT:std_type_info_static.obj
 0002:0000b208       ??_R1A@?0A@EA@type_info@@8 1003c208     LIBCMT:std_type_info_static.obj
 0002:0000b224       ??_R4bad_alloc@std@@6B@    1003c224     LIBCMT:throw_bad_alloc.obj
 0002:0000b238       ??_R3bad_alloc@std@@8      1003c238     LIBCMT:throw_bad_alloc.obj
 0002:0000b248       ??_R2bad_alloc@std@@8      1003c248     LIBCMT:throw_bad_alloc.obj
 0002:0000b254       ??_R1A@?0A@EA@bad_alloc@std@@8 1003c254     LIBCMT:throw_bad_alloc.obj
 0002:0000b270       ??_R4bad_array_new_length@std@@6B@ 1003c270     LIBCMT:throw_bad_alloc.obj
 0002:0000b284       ??_R3bad_array_new_length@std@@8 1003c284     LIBCMT:throw_bad_alloc.obj
 0002:0000b294       ??_R2bad_array_new_length@std@@8 1003c294     LIBCMT:throw_bad_alloc.obj
 0002:0000b2a4       ??_R1A@?0A@EA@bad_array_new_length@std@@8 1003c2a4     LIBCMT:throw_bad_alloc.obj
 0002:0000b2c0       ??_R4_Locimp@locale@std@@6B@ 1003c2c0     libcpmt:locale0.obj
 0002:0000b2d4       ??_R3_Locimp@locale@std@@8 1003c2d4     libcpmt:locale0.obj
 0002:0000b2e4       ??_R2_Locimp@locale@std@@8 1003c2e4     libcpmt:locale0.obj
 0002:0000b2f8       ??_R1A@?0A@EA@_Locimp@locale@std@@8 1003c2f8     libcpmt:locale0.obj
 0002:0000b314       ??_R4logic_error@std@@6B@  1003c314     libcpmt:xthrow.obj
 0002:0000b328       ??_R3logic_error@std@@8    1003c328     libcpmt:xthrow.obj
 0002:0000b338       ??_R2logic_error@std@@8    1003c338     libcpmt:xthrow.obj
 0002:0000b344       ??_R1A@?0A@EA@logic_error@std@@8 1003c344     libcpmt:xthrow.obj
 0002:0000b360       ??_R4length_error@std@@6B@ 1003c360     libcpmt:xthrow.obj
 0002:0000b374       ??_R3length_error@std@@8   1003c374     libcpmt:xthrow.obj
 0002:0000b384       ??_R2length_error@std@@8   1003c384     libcpmt:xthrow.obj
 0002:0000b394       ??_R1A@?0A@EA@length_error@std@@8 1003c394     libcpmt:xthrow.obj
 0002:0000b3b0       ??_R4out_of_range@std@@6B@ 1003c3b0     libcpmt:xthrow.obj
 0002:0000b3c4       ??_R3out_of_range@std@@8   1003c3c4     libcpmt:xthrow.obj
 0002:0000b3d4       ??_R2out_of_range@std@@8   1003c3d4     libcpmt:xthrow.obj
 0002:0000b3e4       ??_R1A@?0A@EA@out_of_range@std@@8 1003c3e4     libcpmt:xthrow.obj
 0002:0000b400       ??_R4bad_exception@std@@6B@ 1003c400     libvcruntime:frame.obj
 0002:0000b414       ??_R3bad_exception@std@@8  1003c414     libvcruntime:frame.obj
 0002:0000b424       ??_R2bad_exception@std@@8  1003c424     libvcruntime:frame.obj
 0002:0000b430       ??_R1A@?0A@EA@bad_exception@std@@8 1003c430     libvcruntime:frame.obj
 0002:0000b44c       ??_R4exception@std@@6B@    1003c44c     Client.obj
 0002:0000b460       ??_R2system_error@std@@8   1003c460     Client.obj
 0002:0000b474       ??_R1A@?0A@EA@system_error@std@@8 1003c474     Client.obj
 0002:0000b490       ??_R4?$basic_ostream@DU?$char_traits@D@std@@@std@@6B@ 1003c490     Client.obj
 0002:0000b4a4       ??_R3?$ctype@D@std@@8      1003c4a4     Client.obj
 0002:0000b4b4       ??_R1A@?0A@EA@_Iostream_error_category@std@@8 1003c4b4     Client.obj
 0002:0000b4d0       ??_R4runtime_error@std@@6B@ 1003c4d0     Client.obj
 0002:0000b4e4       ??_R4_System_error@std@@6B@ 1003c4e4     Client.obj
 0002:0000b4f8       ??_R3_Facet_base@std@@8    1003c4f8     Client.obj
 0002:0000b508       ??_R1A@?0A@EA@bad_cast@std@@8 1003c508     Client.obj
 0002:0000b524       ??_R3_Crt_new_delete@std@@8 1003c524     Client.obj
 0002:0000b534       ??_R1A@?0A@EA@runtime_error@std@@8 1003c534     Client.obj
 0002:0000b550       ??_R2_System_error@std@@8  1003c550     Client.obj
 0002:0000b560       ??_R13?0A@EA@_Crt_new_delete@std@@8 1003c560     Client.obj
 0002:0000b57c       ??_R17A@3EA@?$_Iosb@H@std@@8 1003c57c     Client.obj
 0002:0000b598       ??_R1A@?0A@EA@exception@std@@8 1003c598     Client.obj
 0002:0000b5b4       ??_R4_Iostream_error_category@std@@6B@ 1003c5b4     Client.obj
 0002:0000b5c8       ??_R4ios_base@std@@6B@     1003c5c8     Client.obj
 0002:0000b5dc       ??_R4system_error@std@@6B@ 1003c5dc     Client.obj
 0002:0000b5f0       ??_R1A@?0A@EA@_Generic_error_category@std@@8 1003c5f0     Client.obj
 0002:0000b60c       ??_R1A@?0A@EA@?$basic_streambuf@DU?$char_traits@D@std@@@std@@8 1003c60c     Client.obj
 0002:0000b628       ??_R1A@?0A@EA@_Facet_base@std@@8 1003c628     Client.obj
 0002:0000b644       ??_R3_System_error@std@@8  1003c644     Client.obj
 0002:0000b654       ??_R3_Iostream_error_category@std@@8 1003c654     Client.obj
 0002:0000b664       ??_R2bad_cast@std@@8       1003c664     Client.obj
 0002:0000b670       ??_R2exception@std@@8      1003c670     Client.obj
 0002:0000b678       ??_R4failure@ios_base@std@@6B@ 1003c678     Client.obj
 0002:0000b68c       ??_R2?$basic_ostream@DU?$char_traits@D@std@@@std@@8 1003c68c     Client.obj
 0002:0000b6a0       ??_R3?$basic_ios@DU?$char_traits@D@std@@@std@@8 1003c6a0     Client.obj
 0002:0000b6b0       ??_R3_Generic_error_category@std@@8 1003c6b0     Client.obj
 0002:0000b6c0       ??_R2_Iostream_error_category@std@@8 1003c6c0     Client.obj
 0002:0000b6d0       ??_R2error_category@std@@8 1003c6d0     Client.obj
 0002:0000b6d8       ??_R1A@?0A@EA@facet@locale@std@@8 1003c6d8     Client.obj
 0002:0000b6f4       ??_R2failure@ios_base@std@@8 1003c6f4     Client.obj
 0002:0000b70c       ??_R4error_category@std@@6B@ 1003c70c     Client.obj
 0002:0000b720       ??_R3failure@ios_base@std@@8 1003c720     Client.obj
 0002:0000b730       ??_R2?$ctype@D@std@@8      1003c730     Client.obj
 0002:0000b748       ??_R1A@?0A@EA@ios_base@std@@8 1003c748     Client.obj
 0002:0000b764       ??_R3exception@std@@8      1003c764     Client.obj
 0002:0000b774       ??_R1A@?0A@EA@?$basic_ostream@DU?$char_traits@D@std@@@std@@8 1003c774     Client.obj
 0002:0000b790       ??_R1A@?0A@EA@failure@ios_base@std@@8 1003c790     Client.obj
 0002:0000b7ac       ??_R2?$basic_streambuf@DU?$char_traits@D@std@@@std@@8 1003c7ac     Client.obj
 0002:0000b7b4       ??_R1A@?0A@EA@?$_Iosb@H@std@@8 1003c7b4     Client.obj
 0002:0000b7d0       ??_R3facet@locale@std@@8   1003c7d0     Client.obj
 0002:0000b7e0       ??_R3ctype_base@std@@8     1003c7e0     Client.obj
 0002:0000b7f0       ??_R2_Generic_error_category@std@@8 1003c7f0     Client.obj
 0002:0000b7fc       ??_R1A@?0A@EA@_System_error@std@@8 1003c7fc     Client.obj
 0002:0000b818       ??_R3bad_cast@std@@8       1003c818     Client.obj
 0002:0000b828       ??_R3error_category@std@@8 1003c828     Client.obj
 0002:0000b838       ??_R4bad_cast@std@@6B@     1003c838     Client.obj
 0002:0000b84c       ??_R1A@?0A@EA@_Crt_new_delete@std@@8 1003c84c     Client.obj
 0002:0000b868       ??_R4_Facet_base@std@@6B@  1003c868     Client.obj
 0002:0000b87c       ??_R2runtime_error@std@@8  1003c87c     Client.obj
 0002:0000b888       ??_R1A@A@3FA@?$basic_ios@DU?$char_traits@D@std@@@std@@8 1003c888     Client.obj
 0002:0000b8a4       ??_R4?$basic_streambuf@DU?$char_traits@D@std@@@std@@6B@ 1003c8a4     Client.obj
 0002:0000b8b8       ??_R2ios_base@std@@8       1003c8b8     Client.obj
 0002:0000b8c4       ??_R3?$basic_ostream@DU?$char_traits@D@std@@@std@@8 1003c8c4     Client.obj
 0002:0000b8d4       ??_R1A@?0A@EA@ctype_base@std@@8 1003c8d4     Client.obj
 0002:0000b8f0       ??_R2_Crt_new_delete@std@@8 1003c8f0     Client.obj
 0002:0000b8f8       ??_R1A@?0A@EA@?$ctype@D@std@@8 1003c8f8     Client.obj
 0002:0000b914       ??_R3ios_base@std@@8       1003c914     Client.obj
 0002:0000b924       ??_R3?$basic_streambuf@DU?$char_traits@D@std@@@std@@8 1003c924     Client.obj
 0002:0000b934       ??_R2?$_Iosb@H@std@@8      1003c934     Client.obj
 0002:0000b93c       ??_R3system_error@std@@8   1003c93c     Client.obj
 0002:0000b94c       ??_R1A@A@3EA@ios_base@std@@8 1003c94c     Client.obj
 0002:0000b968       ??_R1A@?0A@EA@?$basic_ios@DU?$char_traits@D@std@@@std@@8 1003c968     Client.obj
 0002:0000b984       ??_R3?$_Iosb@H@std@@8      1003c984     Client.obj
 0002:0000b994       ??_R2_Facet_base@std@@8    1003c994     Client.obj
 0002:0000b99c       ??_R2facet@locale@std@@8   1003c99c     Client.obj
 0002:0000b9ac       ??_R17?0A@EA@?$_Iosb@H@std@@8 1003c9ac     Client.obj
 0002:0000b9c8       ??_R4?$ctype@D@std@@6B@    1003c9c8     Client.obj
 0002:0000b9dc       ??_R3runtime_error@std@@8  1003c9dc     Client.obj
 0002:0000b9ec       ??_R2?$basic_ios@DU?$char_traits@D@std@@@std@@8 1003c9ec     Client.obj
 0002:0000b9fc       ??_R2ctype_base@std@@8     1003c9fc     Client.obj
 0002:0000ba10       ??_R1A@?0A@EA@error_category@std@@8 1003ca10     Client.obj
 0002:0000ba2c       ??_R4?$basic_ofstream@DU?$char_traits@D@std@@@std@@6B@ 1003ca2c     main.obj
 0002:0000ba40       ??_R3?$basic_ofstream@DU?$char_traits@D@std@@@std@@8 1003ca40     main.obj
 0002:0000ba50       ??_R2?$codecvt@DDU_Mbstatet@@@std@@8 1003ca50     main.obj
 0002:0000ba68       ??_R2?$basic_ofstream@DU?$char_traits@D@std@@@std@@8 1003ca68     main.obj
 0002:0000ba80       ??_R2codecvt_base@std@@8   1003ca80     main.obj
 0002:0000ba94       ??_R1A@?0A@EA@codecvt_base@std@@8 1003ca94     main.obj
 0002:0000bab0       ??_R3codecvt_base@std@@8   1003cab0     main.obj
 0002:0000bac0       ??_R4?$basic_filebuf@DU?$char_traits@D@std@@@std@@6B@ 1003cac0     main.obj
 0002:0000bad4       ??_R3?$codecvt@DDU_Mbstatet@@@std@@8 1003cad4     main.obj
 0002:0000bae4       ??_R1A@?0A@EA@?$basic_ofstream@DU?$char_traits@D@std@@@std@@8 1003cae4     main.obj
 0002:0000bb00       ??_R1A@?0A@EA@?$basic_filebuf@DU?$char_traits@D@std@@@std@@8 1003cb00     main.obj
 0002:0000bb1c       ??_R3?$basic_filebuf@DU?$char_traits@D@std@@@std@@8 1003cb1c     main.obj
 0002:0000bb2c       ??_R4?$codecvt@DDU_Mbstatet@@@std@@6B@ 1003cb2c     main.obj
 0002:0000bb40       ??_R2?$basic_filebuf@DU?$char_traits@D@std@@@std@@8 1003cb40     main.obj
 0002:0000bb4c       ??_R1A@?0A@EA@?$codecvt@DDU_Mbstatet@@@std@@8 1003cb4c     main.obj
 0002:0000bb68       ?_TraceLoggingMetadata@?1??_TlgWrite@__vcrt_trace_logging_provider@@YAJPBU_TlgProvider_t@2@PBXPBU_GUID@@2IPAU_EVENT_DATA_DESCRIPTOR@@@Z@4U_TraceLoggingMetadata_t@2@B 1003cb68     libvcruntime:telemetry.obj
 0002:0000bc1b       ?_TraceLoggingMetadataEnd@?1??_TlgWrite@__vcrt_trace_logging_provider@@YAJPBU_TlgProvider_t@2@PBXPBU_GUID@@2IPAU_EVENT_DATA_DESCRIPTOR@@@Z@4EB 1003cc1b     libvcruntime:telemetry.obj
 0002:0000bfb8       ___rtc_iaa                 1003cfb8     LIBCMT:_initsect_.obj
 0002:0000bfbc       ___rtc_izz                 1003cfbc     LIBCMT:_initsect_.obj
 0002:0000bfc0       ___rtc_taa                 1003cfc0     LIBCMT:_initsect_.obj
 0002:0000bfc4       ___rtc_tzz                 1003cfc4     LIBCMT:_initsect_.obj
 0002:0000c57c       __TI2?AVbad_alloc@std@@    1003d57c     LIBCMT:throw_bad_alloc.obj
 0002:0000c58c       __CTA2?AVbad_alloc@std@@   1003d58c     LIBCMT:throw_bad_alloc.obj
 0002:0000c598       __CT??_R0?AVbad_alloc@std@@@8??0bad_alloc@std@@QAE@ABV01@@Z12 1003d598     LIBCMT:throw_bad_alloc.obj
 0002:0000c5b4       __TI3?AVbad_array_new_length@std@@ 1003d5b4     LIBCMT:throw_bad_alloc.obj
 0002:0000c5c4       __CTA3?AVbad_array_new_length@std@@ 1003d5c4     LIBCMT:throw_bad_alloc.obj
 0002:0000c5d4       __CT??_R0?AVbad_array_new_length@std@@@8??0bad_array_new_length@std@@QAE@ABV01@@Z12 1003d5d4     LIBCMT:throw_bad_alloc.obj
 0002:0000c648       __CT??_R0?AVlogic_error@std@@@8??0logic_error@std@@QAE@ABV01@@Z12 1003d648     libcpmt:xthrow.obj
 0002:0000c664       __TI3?AVlength_error@std@@ 1003d664     libcpmt:xthrow.obj
 0002:0000c674       __CTA3?AVlength_error@std@@ 1003d674     libcpmt:xthrow.obj
 0002:0000c684       __CT??_R0?AVlength_error@std@@@8??0length_error@std@@QAE@ABV01@@Z12 1003d684     libcpmt:xthrow.obj
 0002:0000c6a0       __TI3?AVout_of_range@std@@ 1003d6a0     libcpmt:xthrow.obj
 0002:0000c6b0       __CTA3?AVout_of_range@std@@ 1003d6b0     libcpmt:xthrow.obj
 0002:0000c6c0       __CT??_R0?AVout_of_range@std@@@8??0out_of_range@std@@QAE@ABV01@@Z12 1003d6c0     libcpmt:xthrow.obj
 0002:0000c7e4       __TI2?AVbad_exception@std@@ 1003d7e4     libvcruntime:frame.obj
 0002:0000c7f4       __CTA2?AVbad_exception@std@@ 1003d7f4     libvcruntime:frame.obj
 0002:0000c800       __CT??_R0?AVbad_exception@std@@@8??0bad_exception@std@@QAE@ABV01@@Z12 1003d800     libvcruntime:frame.obj
 0002:0000cd0c       __TI2?AVruntime_error@std@@ 1003dd0c     Client.obj
 0002:0000cd1c       __CT??_R0?AVbad_cast@std@@@8??0bad_cast@std@@QAE@ABV01@@Z12 1003dd1c     Client.obj
 0002:0000cd38       __CT??_R0?AVsystem_error@std@@@8??0system_error@std@@QAE@ABV01@@Z20 1003dd38     Client.obj
 0002:0000cd54       __CTA2?AVbad_cast@std@@    1003dd54     Client.obj
 0002:0000cd60       __CTA5?AVfailure@ios_base@std@@ 1003dd60     Client.obj
 0002:0000cd78       __TI2?AVbad_cast@std@@     1003dd78     Client.obj
 0002:0000cd88       __CT??_R0?AVruntime_error@std@@@8??0runtime_error@std@@QAE@ABV01@@Z12 1003dd88     Client.obj
 0002:0000cda4       __CT??_R0?AVexception@std@@@8??0exception@std@@QAE@ABV01@@Z12 1003dda4     Client.obj
 0002:0000cdc0       __CTA2?AVruntime_error@std@@ 1003ddc0     Client.obj
 0002:0000cdcc       __TI5?AVfailure@ios_base@std@@ 1003ddcc     Client.obj
 0002:0000cddc       __CT??_R0?AV_System_error@std@@@8??0_System_error@std@@QAE@ABV01@@Z20 1003dddc     Client.obj
 0002:0000cdf8       __CT??_R0?AVfailure@ios_base@std@@@8??0failure@ios_base@std@@QAE@ABV012@@Z20 1003ddf8     Client.obj
 0002:0000ce70       __IMPORT_DESCRIPTOR_KERNEL32 1003de70     kernel32:KERNEL32.dll
 0002:0000ce84       __IMPORT_DESCRIPTOR_USER32 1003de84     user32:USER32.dll
 0002:0000ce98       __IMPORT_DESCRIPTOR_OPENGL32 1003de98     OpenGL32:OPENGL32.dll
 0002:0000ceac       __IMPORT_DESCRIPTOR_ADVAPI32 1003deac     advapi32:ADVAPI32.dll
 0002:0000cec0       __NULL_IMPORT_DESCRIPTOR   1003dec0     kernel32:KERNEL32.dll
 0003:00000000       __Init_global_epoch        1003f000     LIBCMT:thread_safe_statics.obj
 0003:00000004       ___scrt_native_dllmain_reason 1003f004     LIBCMT:utility.obj
 0003:00000008       ___security_cookie_complement 1003f008     LIBCMT:gs_cookie.obj
 0003:0000000c       ___security_cookie         1003f00c     LIBCMT:gs_cookie.obj
 0003:00000010       ___isa_enabled             1003f010     LIBCMT:_cpu_disp_.obj
 0003:00000018       ?_Sync@ios_base@std@@0_NA  1003f018     libcpmt:ios.obj
 0003:00000020       __FDenorm                  1003f020     libcpmt:xfvalues.obj
 0003:00000030       __FInf                     1003f030     libcpmt:xfvalues.obj
 0003:00000040       __FNan                     1003f040     libcpmt:xfvalues.obj
 0003:00000050       __FSnan                    1003f050     libcpmt:xfvalues.obj
 0003:00000060       __FEps                     1003f060     libcpmt:xfvalues.obj
 0003:00000070       __FRteps                   1003f070     libcpmt:xfvalues.obj
 0003:00000080       __FXbig                    1003f080     libcpmt:xfvalues.obj
 0003:00000090       ?_PJP_CPP_Copyright@@3PADA 1003f090     libcpmt:iosptrs.obj
 0003:000000e8       __Denorm                   1003f0e8     libcpmt:xvalues.obj
 0003:000000f8       __Hugeval                  1003f0f8     libcpmt:xvalues.obj
 0003:00000108       __Inf                      1003f108     libcpmt:xvalues.obj
 0003:00000118       __Nan                      1003f118     libcpmt:xvalues.obj
 0003:00000128       __Snan                     1003f128     libcpmt:xvalues.obj
 0003:00000138       __Eps                      1003f138     libcpmt:xvalues.obj
 0003:00000148       __Rteps                    1003f148     libcpmt:xvalues.obj
 0003:00000158       __Xbig                     1003f158     libcpmt:xvalues.obj
 0003:00000160       __LDenorm                  1003f160     libcpmt:xlvalues.obj
 0003:00000170       __LInf                     1003f170     libcpmt:xlvalues.obj
 0003:00000180       __LNan                     1003f180     libcpmt:xlvalues.obj
 0003:00000190       __LSnan                    1003f190     libcpmt:xlvalues.obj
 0003:000001a0       __LEps                     1003f1a0     libcpmt:xlvalues.obj
 0003:000001b0       __LRteps                   1003f1b0     libcpmt:xlvalues.obj
 0003:000001c0       __LXbig                    1003f1c0     libcpmt:xlvalues.obj
 0003:000002b0       __NLG_Destination          1003f2b0     libvcruntime:_exsup_.obj
 0003:000002d0       ___acrt_lconv_static_decimal 1003f2d0     libucrt:localeconv.obj
 0003:000002d4       ___acrt_lconv_static_W_decimal 1003f2d4     libucrt:localeconv.obj
 0003:000002d8       ___acrt_lconv_c            1003f2d8     libucrt:localeconv.obj
 0003:00000328       ___acrt_lconv              1003f328     libucrt:localeconv.obj
 0003:00000330       __iob                      1003f330     libucrt:_file.obj
 0003:000003e0       __pctype                   1003f3e0     libucrt:ctype.obj
 0003:000003e4       __pwctype                  1003f3e4     libucrt:ctype.obj
 0003:000003f0       ___abort_behavior          1003f3f0     libucrt:abort.obj
 0003:00000408       ___mb_cur_max              1003f408     libucrt:nlsdata.obj
 0003:00000410       ___acrt_initial_locale_data 1003f410     libucrt:nlsdata.obj
 0003:000004c8       ___acrt_initial_locale_pointers 1003f4c8     libucrt:nlsdata.obj
 0003:000004d0       ___acrt_wide_c_locale_string 1003f4d0     libucrt:nlsdata.obj
 0003:000004d8       ___badioinfo               1003f4d8     libucrt:ioinit.obj
 0003:00000600       __mbctype                  1003f600     libucrt:mbctype.obj
 0003:00000708       __mbcasemap                1003f708     libucrt:mbctype.obj
 0003:00000808       ___acrt_initial_multibyte_data 1003f808     libucrt:mbctype.obj
 0003:00000a28       ___acrt_current_multibyte_data 1003fa28     libucrt:mbctype.obj
 0003:00000a2c       ___globallocalestatus      1003fa2c     libucrt:glstatus.obj
 0003:00000ab8       __lookuptrailbytes         1003fab8     libucrt:read.obj
 0003:00000bc0       ___dcrt_lowio_console_output_handle 1003fbc0     libucrt:initcon.obj
 0003:00000bd0       __fltused                  1003fbd0     LIBCMT:fltused.obj
 0003:00000be4       ?bFirstFrame@@3_NA         1003fbe4     Client.obj
 0003:00000be5       ?bAntiSSTemp@@3_NA         1003fbe5     Client.obj
 0003:00000bf0       ?STEP@@3MA                 1003fbf0     Client.obj
 0003:00000bf4       ?g_AntiScreen@@3Uantiscreen_s@@A 1003fbf4     Client.obj
 0003:00000c10       ??_R0?AVtype_info@@@8      1003fc10     LIBCMT:std_type_info_static.obj
 0003:00000c28       ??_R0?AVbad_alloc@std@@@8  1003fc28     LIBCMT:throw_bad_alloc.obj
 0003:00000c44       ??_R0?AVbad_array_new_length@std@@@8 1003fc44     LIBCMT:throw_bad_alloc.obj
 0003:00000c6c       ??_R0?AV_Locimp@locale@std@@@8 1003fc6c     libcpmt:locale0.obj
 0003:00000c90       ??_R0?AVlogic_error@std@@@8 1003fc90     libcpmt:xthrow.obj
 0003:00000cb0       ??_R0?AVlength_error@std@@@8 1003fcb0     libcpmt:xthrow.obj
 0003:00000cd0       ??_R0?AVout_of_range@std@@@8 1003fcd0     libcpmt:xthrow.obj
 0003:00000cf0       ??_R0?AVbad_exception@std@@@8 1003fcf0     libvcruntime:frame.obj
 0003:00000d10       ??_R0?AVfailure@ios_base@std@@@8 1003fd10     Client.obj
 0003:00000d34       ??_R0?AVruntime_error@std@@@8 1003fd34     Client.obj
 0003:00000d54       ??_R0?AVios_base@std@@@8   1003fd54     Client.obj
 0003:00000d70       ??_R0?AVerror_category@std@@@8 1003fd70     Client.obj
 0003:00000d94       ??_R0?AV?$ctype@D@std@@@8  1003fd94     Client.obj
 0003:00000db0       ??_R0?AVsystem_error@std@@@8 1003fdb0     Client.obj
 0003:00000dd0       ??_R0?AV_Facet_base@std@@@8 1003fdd0     Client.obj
 0003:00000df0       ??_R0?AV_Generic_error_category@std@@@8 1003fdf0     Client.obj
 0003:00000e1c       ??_R0?AU_Crt_new_delete@std@@@8 1003fe1c     Client.obj
 0003:00000e40       ??_R0?AV?$_Iosb@H@std@@@8  1003fe40     Client.obj
 0003:00000e5c       ??_R0?AV?$basic_streambuf@DU?$char_traits@D@std@@@std@@@8 1003fe5c     Client.obj
 0003:00000e98       ??_R0?AV_Iostream_error_category@std@@@8 1003fe98     Client.obj
 0003:00000ec4       ??_R0?AVbad_cast@std@@@8   1003fec4     Client.obj
 0003:00000ee0       ??_R0?AUctype_base@std@@@8 1003fee0     Client.obj
 0003:00000f00       ??_R0?AV?$basic_ios@DU?$char_traits@D@std@@@std@@@8 1003ff00     Client.obj
 0003:00000f38       ??_R0?AVfacet@locale@std@@@8 1003ff38     Client.obj
 0003:00000f58       ??_R0?AV?$basic_ostream@DU?$char_traits@D@std@@@std@@@8 1003ff58     Client.obj
 0003:00000f94       ??_R0?AV_System_error@std@@@8 1003ff94     Client.obj
 0003:00000fb4       ??_R0?AVexception@std@@@8  1003ffb4     Client.obj
 0003:00000fd0       ??_R0?AV?$basic_filebuf@DU?$char_traits@D@std@@@std@@@8 1003ffd0     main.obj
 0003:0000100c       ??_R0?AV?$codecvt@DDU_Mbstatet@@@std@@@8 1004000c     main.obj
 0003:00001038       ??_R0?AVcodecvt_base@std@@@8 10040038     main.obj
 0003:00001058       ??_R0?AV?$basic_ofstream@DU?$char_traits@D@std@@@std@@@8 10040058     main.obj
 0003:000010c0       ___scrt_current_native_startup_state 100400c0     LIBCMT:utility.obj
 0003:000010c4       ___scrt_native_startup_lock 100400c4     LIBCMT:utility.obj
 0003:000010e8       ___scrt_debugger_hook_flag 100400e8     LIBCMT:utility_desktop.obj
 0003:000010ec       __tls_index                100400ec     LIBCMT:tlssup.obj
 0003:000010f0       ___isa_available           100400f0     LIBCMT:_cpu_disp_.obj
 0003:000010f4       ___favor                   100400f4     LIBCMT:_cpu_disp_.obj
 0003:000010f8       ?__type_info_root_node@@3U__type_info_node@@A 100400f8     LIBCMT:tncleanup.obj
 0003:00001100       ?_OptionsStorage@?1??__local_stdio_scanf_options@@9@4_KA 10040100     LIBCMT:default_local_stdio_options.obj
 0003:000014f0       ?_Id_cnt@id@locale@std@@0HA 100404f0     libcpmt:locale0.obj
 0003:000014f4       ?_Clocptr@_Locimp@locale@std@@0PAV123@A 100404f4     libcpmt:locale0.obj
 0003:00001500       ?id@?$ctype@G@std@@2V0locale@2@A 10040500     libcpmt:locale0.obj
 0003:00001504       ?id@?$codecvt@_WDU_Mbstatet@@@std@@2V0locale@2@A 10040504     libcpmt:locale0.obj
 0003:00001508       ?id@?$codecvt@GDU_Mbstatet@@@std@@2V0locale@2@A 10040508     libcpmt:locale0.obj
 0003:0000150c       ?id@?$ctype@_W@std@@2V0locale@2@A 1004050c     libcpmt:locale0.obj
 0003:00001510       ?id@?$ctype@D@std@@2V0locale@2@A 10040510     libcpmt:locale0.obj
 0003:00001554       ?_Index@ios_base@std@@0HA  10040554     libcpmt:ios.obj
 0003:00001558       __FZero                    10040558     libcpmt:xfvalues.obj
 0003:0000155c       ?_Ptr_cout@std@@3PAV?$basic_ostream@DU?$char_traits@D@std@@@1@A 1004055c     libcpmt:iosptrs.obj
 0003:00001560       ?_Ptr_cerr@std@@3PAV?$basic_ostream@DU?$char_traits@D@std@@@1@A 10040560     libcpmt:iosptrs.obj
 0003:00001564       ?_Ptr_clog@std@@3PAV?$basic_ostream@DU?$char_traits@D@std@@@1@A 10040564     libcpmt:iosptrs.obj
 0003:00001568       ?_Ptr_wcin@std@@3PAV?$basic_istream@_WU?$char_traits@_W@std@@@1@A 10040568     libcpmt:iosptrs.obj
 0003:0000156c       ?_Ptr_wcout@std@@3PAV?$basic_ostream@_WU?$char_traits@_W@std@@@1@A 1004056c     libcpmt:iosptrs.obj
 0003:00001570       ?_Ptr_wcerr@std@@3PAV?$basic_ostream@_WU?$char_traits@_W@std@@@1@A 10040570     libcpmt:iosptrs.obj
 0003:00001574       ?_Ptr_wclog@std@@3PAV?$basic_ostream@_WU?$char_traits@_W@std@@@1@A 10040574     libcpmt:iosptrs.obj
 0003:000015a0       ?_Ptr_cin@std@@3PAV?$basic_istream@DU?$char_traits@D@std@@@1@A 100405a0     libcpmt:iosptrs.obj
 0003:000015a8       ?id@?$num_put@DV?$ostreambuf_iterator@DU?$char_traits@D@std@@@std@@@std@@2V0locale@2@A 100405a8     libcpmt:locale.obj
 0003:000015b0       __Zero                     100405b0     libcpmt:xvalues.obj
 0003:000015b8       __LZero                    100405b8     libcpmt:xlvalues.obj
 0003:000015c0       ___encodedKERNEL32Functions 100405c0     libcpmt:winapisupp.obj
 0003:00001660       ?id@?$time_put@_WV?$ostreambuf_iterator@_WU?$char_traits@_W@std@@@std@@@std@@2V0locale@2@A 10040660     libcpmt:wlocale.obj
 0003:00001664       ?id@?$num_get@_WV?$istreambuf_iterator@_WU?$char_traits@_W@std@@@std@@@std@@2V0locale@2@A 10040664     libcpmt:wlocale.obj
 0003:00001668       ?id@?$num_put@_WV?$ostreambuf_iterator@_WU?$char_traits@_W@std@@@std@@@std@@2V0locale@2@A 10040668     libcpmt:wlocale.obj
 0003:0000166c       ?id@?$numpunct@_W@std@@2V0locale@2@A 1004066c     libcpmt:wlocale.obj
 0003:00001670       ?id@?$collate@_W@std@@2V0locale@2@A 10040670     libcpmt:wlocale.obj
 0003:00001674       ?id@?$messages@_W@std@@2V0locale@2@A 10040674     libcpmt:wlocale.obj
 0003:00001678       ?id@?$money_get@_WV?$istreambuf_iterator@_WU?$char_traits@_W@std@@@std@@@std@@2V0locale@2@A 10040678     libcpmt:wlocale.obj
 0003:0000167c       ?id@?$money_put@_WV?$ostreambuf_iterator@_WU?$char_traits@_W@std@@@std@@@std@@2V0locale@2@A 1004067c     libcpmt:wlocale.obj
 0003:00001680       ?id@?$moneypunct@_W$0A@@std@@2V0locale@2@A 10040680     libcpmt:wlocale.obj
 0003:00001684       ?id@?$moneypunct@_W$00@std@@2V0locale@2@A 10040684     libcpmt:wlocale.obj
 0003:00001688       ?id@?$time_get@_WV?$istreambuf_iterator@_WU?$char_traits@_W@std@@@std@@@std@@2V0locale@2@A 10040688     libcpmt:wlocale.obj
 0003:0000168c       ?id@?$num_get@GV?$istreambuf_iterator@GU?$char_traits@G@std@@@std@@@std@@2V0locale@2@A 1004068c     libcpmt:wlocale.obj
 0003:00001690       ?id@?$num_put@GV?$ostreambuf_iterator@GU?$char_traits@G@std@@@std@@@std@@2V0locale@2@A 10040690     libcpmt:wlocale.obj
 0003:00001694       ?id@?$numpunct@G@std@@2V0locale@2@A 10040694     libcpmt:wlocale.obj
 0003:00001698       ?id@?$collate@G@std@@2V0locale@2@A 10040698     libcpmt:wlocale.obj
 0003:0000169c       ?id@?$messages@G@std@@2V0locale@2@A 1004069c     libcpmt:wlocale.obj
 0003:000016a0       ?id@?$money_get@GV?$istreambuf_iterator@GU?$char_traits@G@std@@@std@@@std@@2V0locale@2@A 100406a0     libcpmt:wlocale.obj
 0003:000016a4       ?id@?$money_put@GV?$ostreambuf_iterator@GU?$char_traits@G@std@@@std@@@std@@2V0locale@2@A 100406a4     libcpmt:wlocale.obj
 0003:000016a8       ?id@?$moneypunct@G$0A@@std@@2V0locale@2@A 100406a8     libcpmt:wlocale.obj
 0003:000016ac       ?id@?$moneypunct@G$00@std@@2V0locale@2@A 100406ac     libcpmt:wlocale.obj
 0003:000016b0       ?id@?$time_get@GV?$istreambuf_iterator@GU?$char_traits@G@std@@@std@@@std@@2V0locale@2@A 100406b0     libcpmt:wlocale.obj
 0003:000016b4       ?id@?$time_put@GV?$ostreambuf_iterator@GU?$char_traits@G@std@@@std@@@std@@2V0locale@2@A 100406b4     libcpmt:wlocale.obj
 0003:000016b8       ?id@?$collate@D@std@@2V0locale@2@A 100406b8     libcpmt:xlocale.obj
 0003:000016bc       ?id@?$messages@D@std@@2V0locale@2@A 100406bc     libcpmt:xlocale.obj
 0003:000016c0       ?id@?$money_get@DV?$istreambuf_iterator@DU?$char_traits@D@std@@@std@@@std@@2V0locale@2@A 100406c0     libcpmt:xlocale.obj
 0003:000016c4       ?id@?$money_put@DV?$ostreambuf_iterator@DU?$char_traits@D@std@@@std@@@std@@2V0locale@2@A 100406c4     libcpmt:xlocale.obj
 0003:000016c8       ?id@?$moneypunct@D$0A@@std@@2V0locale@2@A 100406c8     libcpmt:xlocale.obj
 0003:000016cc       ?id@?$moneypunct@D$00@std@@2V0locale@2@A 100406cc     libcpmt:xlocale.obj
 0003:000016d0       ?id@?$time_get@DV?$istreambuf_iterator@DU?$char_traits@D@std@@@std@@@std@@2V0locale@2@A 100406d0     libcpmt:xlocale.obj
 0003:000016d4       ?id@?$time_put@DV?$ostreambuf_iterator@DU?$char_traits@D@std@@@std@@@std@@2V0locale@2@A 100406d4     libcpmt:xlocale.obj
 0003:000016d8       ?g_OutOfMemoryExceptionCallback@@3P6GPAXXZA 100406d8     libvcruntime:frame.obj
 0003:00001710       ___pPurecall               10040710     libvcruntime:purevirt_data.obj
 0003:00001758       ?pArgList@UnDecorator@@0PAVReplicator@@A 10040758     libvcruntime:undname.obj
 0003:0000175c       ?pZNameList@UnDecorator@@0PAVReplicator@@A 1004075c     libvcruntime:undname.obj
 0003:00001760       ?pTemplateArgList@UnDecorator@@0PAVReplicator@@A 10040760     libvcruntime:undname.obj
 0003:00001764       ?gName@UnDecorator@@0PBDB  10040764     libvcruntime:undname.obj
 0003:00001768       ?name@UnDecorator@@0PBDB   10040768     libvcruntime:undname.obj
 0003:0000176c       ?outputString@UnDecorator@@0PADA 1004076c     libvcruntime:undname.obj
 0003:00001770       ?maxStringLength@UnDecorator@@0HA 10040770     libvcruntime:undname.obj
 0003:00001774       ?disableFlags@UnDecorator@@0KA 10040774     libvcruntime:undname.obj
 0003:00001778       ?fExplicitTemplateParams@UnDecorator@@0_NA 10040778     libvcruntime:undname.obj
 0003:00001779       ?fGetTemplateArgumentList@UnDecorator@@0_NA 10040779     libvcruntime:undname.obj
 0003:0000177c       ?m_pGetParameter@UnDecorator@@0P6APADJ@ZA 1004077c     libvcruntime:undname.obj
 0003:00001820       ___acrt_lconv_static_null  10040820     libucrt:localeconv.obj
 0003:00001824       ___acrt_lconv_static_W_null 10040824     libucrt:localeconv.obj
 0003:0000182c       __nstream                  1004082c     libucrt:_file.obj
 0003:00001830       ___piob                    10040830     libucrt:_file.obj
 0003:00001834       __cflush                   10040834     libucrt:_file.obj
 0003:00001848       __environ_table            10040848     libucrt:environment_initialization.obj
 0003:0000184c       __wenviron_table           1004084c     libucrt:environment_initialization.obj
 0003:00001850       ___dcrt_initial_wide_environment 10040850     libucrt:environment_initialization.obj
 0003:00001854       ___dcrt_initial_narrow_environment 10040854     libucrt:environment_initialization.obj
 0003:00001858       ___acrt_atexit_table       10040858     libucrt:onexit.obj
 0003:00001864       ___acrt_at_quick_exit_table 10040864     libucrt:onexit.obj
 0003:000019b0       ___acrt_stdout_buffer      100409b0     libucrt:_sftbuf.obj
 0003:000019b4       ___acrt_stderr_buffer      100409b4     libucrt:_sftbuf.obj
 0003:000019b8       ___acrt_locale_changed_data 100409b8     libucrt:wsetlocale.obj
 0003:000019bc       ___acrt_current_locale_data 100409bc     libucrt:nlsdata.obj
 0003:000019c0       ___pioinfo                 100409c0     libucrt:ioinit.obj
 0003:00001bc0       __nhandle                  10040bc0     libucrt:ioinit.obj
 0003:00001ca0       ___mblocalename            10040ca0     libucrt:mbctype.obj
 0003:00001ca4       ___mbcodepage              10040ca4     libucrt:mbctype.obj
 0003:00001ca8       ___ismbcodepage            10040ca8     libucrt:mbctype.obj
 0003:00001cac       ___mbulinfo                10040cac     libucrt:mbctype.obj
 0003:00001cc0       ___acrt_heap               10040cc0     libucrt:heap_handle.obj
 0003:00001cc4       ___argv                    10040cc4     libucrt:argv_data.obj
 0003:00001cc8       ___wargv                   10040cc8     libucrt:argv_data.obj
 0003:00001ccc       __acmdln                   10040ccc     libucrt:argv_data.obj
 0003:00001cd0       __wcmdln                   10040cd0     libucrt:argv_data.obj
 0003:00001cec       ___fastflag                10040cec     libucrt:fp_flags.obj
 0003:00001cf0       ?_timezone@@3V?$dual_state_global@J@__crt_state_management@@A 10040cf0     libucrt:timeset.obj
 0003:00001cf4       ?_daylight@@3V?$dual_state_global@H@__crt_state_management@@A 10040cf4     libucrt:timeset.obj
 0003:00001cf8       ?_dstbias@@3V?$dual_state_global@J@__crt_state_management@@A 10040cf8     libucrt:timeset.obj
 0003:00001dc0       ?_OptionsStorage@?1??__local_stdio_printf_options@@9@4_KA 10040dc0     cFont.obj
 0003:00001dc8       ?MSG_Buffer@@3PAUsizebuf_s@@A 10040dc8     Client.obj
 0003:00001dcc       ?lr_time@@3HA              10040dcc     Client.obj
 0003:00001dd0       ?bTriggerWorkInThisFrame@@3_NA 10040dd0     Client.obj
 0003:00001dd1       ?bDrawMenu@@3_NA           10040dd1     Client.obj
 0003:00001dd2       ?bTriggerWork@@3_NA        10040dd2     Client.obj
 0003:00001dd3       ?g_Drawing@@3Uvisuals_s@@A 10040dd3     Client.obj
 0003:00001dd4       ?g_Cheat@@3Ucheat_s@@A     10040dd4     Client.obj
 0003:00001dd8       ?MSG_SavedReadCount@@3HA   10040dd8     Client.obj
 0003:00001ddc       ?MSG_ReadCount@@3PAHA      10040ddc     Client.obj
 0003:00001de0       ?MSG_EndBitReading@@3P6AXPAUsizebuf_s@@@ZA 10040de0     Client.obj
 0003:00001de4       ?NoFlash@@3VcNoFlash@@A    10040de4     Client.obj
 0003:00001df0       ?pSVC_sound@@3P6AXXZA      10040df0     Client.obj
 0003:00001df4       ?dwTriggerDrawStatusTime@@3KA 10040df4     Client.obj
 0003:00001df8       ?g_Settings@@3Usettings_s@@A 10040df8     Client.obj
 0003:00002614       ?pEngineMsgBase@@3PAUEngineMsg@@A 10041614     Client.obj
 0003:00002618       ?PreS_DynamicSound_s@@3P6AXHKPADPAMKKKK@ZA 10041618     Client.obj
 0003:0000261c       ?real_screen2@@3P6AXXZA    1004161c     Client.obj
 0003:00002620       ?MSG_ReadBits@@3P6AHH@ZA   10041620     Client.obj
 0003:00002624       ?MSG_ReadBitVec3Coord@@3P6AXPAM@ZA 10041624     Client.obj
 0003:00002628       ?real_screen@@3P6AXXZA     10041628     Client.obj
 0003:0000262c       ?MSG_StartBitReading@@3P6AXPAUsizebuf_s@@@ZA 1004162c     Client.obj
 0003:00002630       ?g_tempVars@@3Utempvars_s@@A 10041630     Client.obj
 0003:0000264c       ?MSG_ReadByte@@3P6AEXZA    1004164c     Client.obj
 0003:00002650       ?g_pStudio@@3PAUengine_studio_api_s@@A 10041650     CvarUtils.obj
 0003:00002654       ?pUserMsgBase@@3PAUTUserMsg@@A 10041654     CvarUtils.obj
 0003:00002658       ?g_Screen@@3USCREENINFO_s@@A 10041658     CvarUtils.obj
 0003:0000286c       ?g_pEngine@@3PAUcl_enginefuncs_s@@A 1004186c     CvarUtils.obj
 0003:00002870       ?g_Studio@@3Uengine_studio_api_s@@A 10041870     CvarUtils.obj
 0003:0000291c       ?g_pClient@@3PAUcl_clientfuncs_s@@A 1004191c     CvarUtils.obj
 0003:00002920       ?BaseDir@@3PADA            10041920     CvarUtils.obj
 0003:00002a24       ?glReadPixels_s@@3P6GXHHHHIIPAX@ZA 10041a24     main.obj
 0003:00002a28       ?g_Engine@@3Ucl_enginefuncs_s@@A 10041a28     CvarUtils.obj
 0003:00002c34       ?gNoSpread@@3VcNoSpread@@A 10041c34     nospread.obj
 0003:00002c38       ?g_Client@@3Ucl_clientfuncs_s@@A 10041c38     CvarUtils.obj
 0003:00002ce8       ?c_Offset@@3VAutoOffset@@A 10041ce8     Offset.obj
 0003:00002d20       ?pDeathMsg@@3P6AHPBDHPAX@ZA 10041d20     UserMsgs.obj
 0003:00002d24       ?pCurWeapon@@3P6AHPBDHPAX@ZA 10041d24     UserMsgs.obj
 0003:00002d28       ?pWeaponList@@3P6AHPBDHPAX@ZA 10041d28     UserMsgs.obj
 0003:00002d2c       ?pAmmoX@@3P6AHPBDHPAX@ZA   10041d2c     UserMsgs.obj
 0003:00002d30       ?pTeamInfo@@3P6AHPBDHPAX@ZA 10041d30     UserMsgs.obj
 0003:00002d34       ?pSetFOV@@3P6AHPBDHPAX@ZA  10041d34     UserMsgs.obj
 0003:00002d38       ?pResetHUD@@3P6AHPBDHPAX@ZA 10041d38     UserMsgs.obj
 0003:00002d3c       ?d_dwSoundTime@@3V?$deque@KV?$allocator@K@std@@@std@@A 10041d3c     Client.obj
 0003:00002d50       ?g_Mini@@3VcFont@@A        10041d50     cFont.obj
 0003:00002f70       ?g_Info@@3VcFont@@A        10041f70     cFont.obj
 0003:00003190       ?g_Local@@3Ulocal_s@@A     10042190     Client.obj
 0003:00003274       ?d_vSoundOrigin@@3V?$deque@VVector@@V?$allocator@VVector@@@std@@@std@@A 10042274     Client.obj
 0003:00003288       ?g_Menu@@3Umenu_s@@A       10042288     Client.obj
 0003:00003340       ?g_Player@@3PAUplayer_s@@A 10042340     Client.obj
 0003:0000bbe4       ?UnlinkedModules@@3V?$vector@U_UNLINKED_MODULE@@V?$allocator@U_UNLINKED_MODULE@@@std@@@std@@A 1004abe4     main.obj
 0003:0000bbf0       ?g_Sound@@3PAUsoundhack_s@@A 1004abf0     Client.obj
 0003:0000bf70       ?ofile@@3V?$basic_ofstream@DU?$char_traits@D@std@@@std@@A 1004af70     main.obj
 0003:0000c020       ?WeaponListStruct@@3V?$vector@UWeapon_List@@V?$allocator@UWeapon_List@@@std@@@std@@A 1004b020     weaponslist.obj
 0003:0000c03c       ?$TSS0@?1???$_Immortalize@V_Iostream_error_category@std@@@std@@YAAAV_Iostream_error_category@1@XZ@4HA 1004b03c     Client.obj
 0003:0000c040       ?_Static@?1???$_Immortalize@V_Iostream_error_category@std@@@std@@YAAAV_Iostream_error_category@1@XZ@4U?$_Immortalizer@V_Iostream_error_category@std@@@1@A 1004b040     Client.obj
 0003:0000c048       ?_Psave@?$_Facetptr@V?$ctype@D@std@@@std@@2PBVfacet@locale@2@B 1004b048     Client.obj
 0003:0000c050       ?_Psave@?$_Facetptr@V?$codecvt@DDU_Mbstatet@@@std@@@std@@2PBVfacet@locale@2@B 1004b050     main.obj
 0003:0000c054       ?_Stinit@?1??_Init@?$basic_filebuf@DU?$char_traits@D@std@@@std@@IAEXPAU_iobuf@@W4_Initfl@23@@Z@4U_Mbstatet@@A 1004b054     main.obj
 0003:0000c064       ?id@?$codecvt@DDU_Mbstatet@@@std@@2V0locale@2@A 1004b064     Client.obj
 0003:0000c068       ?id@?$num_get@DV?$istreambuf_iterator@DU?$char_traits@D@std@@@std@@@std@@2V0locale@2@A 1004b068     Client.obj
 0003:0000c06c       ?id@?$numpunct@D@std@@2V0locale@2@A 1004b06c     Client.obj
 0003:0000c878       ___dyn_tls_init_callback   1004b878     <common>
 0003:0000c87c       ___scrt_ucrt_dll_is_in_use 1004b87c     <common>
 0003:0000c880       __pmatherr                 1004b880     <common>
 0003:0000c884       ___use_sse2_mathfcns       1004b884     <common>
 0004:00000000       __tls_start                1004c000     LIBCMT:tlssup.obj
 0004:00000004       __Init_thread_epoch        1004c004     LIBCMT:thread_safe_statics.obj
 0004:00000008       __tls_end                  1004c008     LIBCMT:tlssup.obj

 entry point at        0001:0001331f

 Static symbols

 0002:fffcf000       .idata$6                   10000000     gdi32:GDI32.dll
 0001:00000ed0       ??__Eg_Mini@@YAXXZ         10001ed0 f   cFont.obj
 0001:00000f10       ??__Eg_Info@@YAXXZ         10001f10 f   cFont.obj
 0001:00000f50       ??__Eg_Menu@@YAXXZ         10001f50 f   Client.obj
 0001:00000fb0       ??__Eg_Local@@YAXXZ        10001fb0 f   Client.obj
 0001:00000ff0       ??__Eg_Player@@YAXXZ       10001ff0 f   Client.obj
 0001:00001020       ??__Eg_Sound@@YAXXZ        10002020 f   Client.obj
 0001:00001050       ??__Ed_vSoundOrigin@@YAXXZ 10002050 f   Client.obj
 0001:00001070       ??__Ed_dwSoundTime@@YAXXZ  10002070 f   Client.obj
 0001:00001090       ??__EUnlinkedModules@@YAXXZ 10002090 f   main.obj
 0001:000010c0       ??__Eofile@@YAXXZ          100020c0 f   main.obj
 0001:000010e0       ??__EWeaponListStruct@@YAXXZ 100020e0 f   weaponslist.obj
 0001:00001110       ??__Einitlocks@std@@YAXXZ  10002110 f   libcpmt:xlock.obj
 0001:00001126       ??__E_Fac_tidy_reg@std@@YAXXZ 10002126 f   libcpmt:locale0.obj
 0001:00001132       ??__Eclassic_locale@std@@YAXXZ 10002132 f   libcpmt:locale0.obj
 0001:0000113e       ??__Einit_atexit@@YAXXZ    1000213e f   libcpmt:iosptrs.obj
 0001:0000114a       ??__Einitlocks@std@@YAXXZ  1000214a f   libcpmt:iosptrs.obj
 0001:00006620       $LN25                      10007620     Client.obj
 0001:0000664c       $LN22                      1000764c     Client.obj
 0001:0000a580       _no_op_initialize          1000b580 f i libucrt:wsetlocale.obj
 0001:0000a860       __TlgDefineProvider_annotation__Tlg_Microsoft_CRTProviderProv 1000b860 f i libvcruntime:telemetry.obj
 0001:0000b96e       __catch$?_Copy@?$basic_string@DU?$char_traits@D@std@@V?$allocator@D@2@@std@@QAEXII@Z$0 1000c96e f i Client.obj
 0001:0000ba13       __catch$?_Copy@?$basic_string@DU?$char_traits@D@std@@V?$allocator@D@2@@std@@QAEXII@Z$1 1000ca13 f i Client.obj
 0001:0000cfa0       _initialize_environment    1000dfa0 f i libucrt:initialization.obj
 0001:0000cfa0       _uninitialize_c            1000dfa0 f i libucrt:initialization.obj
 0001:0000cfa0       _uninitialize_global_state_isolation 1000dfa0 f i libucrt:initialization.obj
 0001:0000cfa0       _initialize_global_state_isolation 1000dfa0 f i libucrt:initialization.obj
 0001:0000cfa0       _report_memory_leaks       1000dfa0 f i libucrt:initialization.obj
 0001:0000f958       $LN1225                    10010958     nospread.obj
 0001:0000f9d0       $LN1226                    100109d0     nospread.obj
 0001:0000fa48       $LN1227                    10010a48     nospread.obj
 0001:0000fac0       $LN1228                    10010ac0     nospread.obj
 0001:000109e8       $LN160                     100119e8     nospread.obj
 0001:000123bc       $LN47                      100133bc     weaponslist.obj
 0001:00012909       ?__scrt_initialize_thread_safe_statics@@YAHXZ 10013909 f   LIBCMT:thread_safe_statics.obj
 0001:000129c9       ?__scrt_uninitialize_thread_safe_statics@@YAXXZ 100139c9 f   LIBCMT:thread_safe_statics.obj
 0001:00012c42       ?find_pe_section@@YAPAU_IMAGE_SECTION_HEADER@@QAEI@Z 10013c42 f   LIBCMT:utility.obj
 0001:0001300a       ?dllmain_crt_dispatch@@YGHQAUHINSTANCE__@@KQAX@Z 1001400a f   LIBCMT:dll_dllmain.obj
 0001:0001305d       ?dllmain_crt_process_attach@@YAHQAUHINSTANCE__@@QAX@Z 1001405d f   LIBCMT:dll_dllmain.obj
 0001:0001316f       ?dllmain_crt_process_detach@@YAH_N@Z 1001416f f   LIBCMT:dll_dllmain.obj
 0001:000131ec       ?dllmain_dispatch@@YAHQAUHINSTANCE__@@KQAX@Z 100141ec f   LIBCMT:dll_dllmain.obj
 0001:000132f5       ?dllmain_raw@@YGHQAUHINSTANCE__@@KQAX@Z 100142f5 f   LIBCMT:dll_dllmain.obj
 0001:00013520       $$000000                   10014520     LIBCMT:_sehprolg4_.obj
 0001:00013ed3       _tidy_global               10014ed3 f   libcpmt:locale0.obj
 0001:0001464e       ?initialize_pointers@@YAHXZ 1001564e f   libcpmt:winapisupp.obj
 0001:00014c00       $$000000                   10015c00     libvcruntime:memmove.obj
 0001:00014e64       TrailingUpVec              10015e64     libvcruntime:memmove.obj
 0001:00014f10       TrailingDownVec            10015f10     libvcruntime:memmove.obj
 0001:0001527b       ?CallCatchBlock@@YAPAXPAUEHExceptionRecord@@PAUEHRegistrationNode@@PAU_CONTEXT@@PBU_s_FuncInfo@@PAXHK@Z 1001627b f   libvcruntime:frame.obj
 0001:00015437       ?CallUnexpected@@YAXPBU_s_ESTypeList@@@Z 10016437 f   libvcruntime:frame.obj
 0001:00015457       __catch$?CallUnexpected@@YAXPBU_s_ESTypeList@@@Z$0 10016457 f   libvcruntime:frame.obj
 0001:00015471       ?CatchIt@@YAXPAUEHExceptionRecord@@PAUEHRegistrationNode@@PAU_CONTEXT@@PAXPBU_s_FuncInfo@@PBU_s_HandlerType@@PBU_s_CatchableType@@PBU_s_TryBlockMapEntry@@H1E@Z 10016471 f   libvcruntime:frame.obj
 0001:000154ec       ?ExFilterRethrow@@YAHPAU_EXCEPTION_POINTERS@@@Z 100164ec f   libvcruntime:frame.obj
 0001:00015536       ?FindHandler@@YAXPAUEHExceptionRecord@@PAUEHRegistrationNode@@PAU_CONTEXT@@PAXPBU_s_FuncInfo@@EH1@Z 10016536 f   libvcruntime:frame.obj
 0001:00015894       ?FindHandlerForForeignException@@YAXPAUEHExceptionRecord@@PAUEHRegistrationNode@@PAU_CONTEXT@@PAXPBU_s_FuncInfo@@HH1@Z 10016894 f   libvcruntime:frame.obj
 0001:000159af       ?IsInExceptionSpec@@YAEPAUEHExceptionRecord@@PBU_s_ESTypeList@@@Z 100169af f   libvcruntime:frame.obj
 0001:00015a4b       ?Is_bad_exception_allowed@@YAEPBU_s_ESTypeList@@@Z 10016a4b f   libvcruntime:frame.obj
 0001:00015f20       $$000000                   10016f20     libvcruntime:strstr.obj
 0001:000161a0       ?try_get_function@@YAPAXW4function_id@?A0x4d80baa5@@QBDQBW4module_id@2@2@Z 100171a0 f   libvcruntime:winapi_downlevel.obj
 0001:00016240       ?try_get_module@@YAPAUHINSTANCE__@@W4module_id@?A0x4d80baa5@@@Z 10017240 f   libvcruntime:winapi_downlevel.obj
 0001:00016550       _ValidateLocalCookies      10017550 f   libvcruntime:_chandler4_.obj
 0001:0001675a       ?__telemetry_getfilename@@YAXPAUHINSTANCE__@@PA_WK@Z 1001775a f   libvcruntime:telemetry.obj
 0001:000168f0       $$000000                   100178f0     libvcruntime:memset.obj
 0001:00016b20       $$000000                   10017b20     libvcruntime:memchr.obj
 0001:00016fb0       $$000000                   10017fb0     libvcruntime:memcpy.obj
 0001:00017214       TrailingUpVec              10018214     libvcruntime:memcpy.obj
 0001:000172c0       TrailingDownVec            100182c0     libvcruntime:memcpy.obj
 0001:00018c24       $LN1281                    10019c24     libvcruntime:_memcmp_.obj
 0001:00018cb0       $$000000                   10019cb0     libvcruntime:_exsup_.obj
 0001:00018cd0       __unwind_handler           10019cd0 f   libvcruntime:_exsup_.obj
 0001:00018df0       $$000000                   10019df0     libvcruntime:_exsup3_.obj
 0001:00019090       $$000000                   1001a090     libvcruntime:lowhelpr.obj
 0001:000190e0       $$000000                   1001a0e0     libvcruntime:strchr.obj
 0001:00019210       $$000000                   1001a210     libvcruntime:_exsup4_.obj
 0001:000192a0       __unwind_handler4          1001a2a0 f   libvcruntime:_exsup4_.obj
 0001:00019420       _ValidateScopeTableHandlers 1001a420 f   libvcruntime:_eh3valid_.obj
 0001:00019844       ??$common_vsprintf@Vstandard_base@__crt_stdio_output@@D@@YAH_KQADIQBDQAU__crt_locale_pointers@@1@Z 1001a844 f   libucrt:output.obj
 0001:00019f9b       $LN54                      1001af9b     libucrt:output.obj
 0001:0001a4b9       $LN19                      1001b4b9     libucrt:output.obj
 0001:0001ab60       $$000000                   1001bb60     libucrt:strncpy.obj
 0001:0001ae48       ??$common_atof_l@D@@YANQBDQAU__crt_locale_pointers@@@Z 1001be48 f   libucrt:atof.obj
 0001:0001b698       $LN21                      1001c698     libucrt:atof.obj
 0001:0001b6c0       ??R<lambda_952f81e62542d0a726c252b8c2136a43>@@QBE_NXZ 1001c6c0 f   libucrt:atof.obj
 0001:0001b6c0       ??R<lambda_3a2f1c4b88a94fdfdc7bccff06592946>@@QBE_NXZ 1001c6c0 f   libucrt:atof.obj
 0001:0001b6c0       ??R<lambda_af0d5e41dc07595f2c52435db9a0efad>@@QBE_NXZ 1001c6c0 f   libucrt:atof.obj
 0001:0001e4a1       _common_flush_all          1001f4a1 f   libucrt:fflush.obj
 0001:0001ea11       ??R<lambda_b51c0495177f500e782686251704ae76>@@QBEIXZ 1001fa11 f   libucrt:fwrite.obj
 0001:0001ed88       ??R<lambda_b721fa326cdb32351d23dfa67958c160>@@QBEHXZ 1001fd88 f   libucrt:setvbuf.obj
 0001:0001ee22       ?set_buffer@@YAHV__crt_stdio_stream@@QADIH@Z 1001fe22 f   libucrt:setvbuf.obj
 0001:0001f0e6       ?common_fseek@@YAHV__crt_stdio_stream@@_JH@Z 100200e6 f   libucrt:fseek.obj
 0001:0001f16d       ?common_fseek_binary_mode_read_only_fast_track_nolock@@YA_NV__crt_stdio_stream@@_JH@Z 1002016d f   libucrt:fseek.obj
 0001:0001f246       ?common_fseek_nolock@@YAHV__crt_stdio_stream@@_JH@Z 10020246 f   libucrt:fseek.obj
 0001:0001f33a       ?_strlwr_s_l_stat@@YAHQADIQAU__crt_locale_pointers@@@Z 1002033a f   libucrt:strlwr.obj
 0001:0001f8b9       ?atexit_exception_filter@@YAHK@Z 100208b9 f   libucrt:exit.obj
 0001:0001f8cc       ?common_exit@@YAXHW4_crt_exit_cleanup_mode@@W4_crt_exit_return_mode@@@Z 100208cc f   libucrt:exit.obj
 0001:0001f9e5       ?exit_or_terminate_process@@YAXI@Z 100209e5 f   libucrt:exit.obj
 0001:0001fa26       ?is_managed_app@@YA_NXZ    10020a26 f   libucrt:exit.obj
 0001:0001fa6a       ?try_cor_exit_process@@YAXI@Z 10020a6a f   libucrt:exit.obj
 0001:0001fb0e       ??$common_initialize_environment_nolock@D@@YAHXZ 10020b0e f   libucrt:environment_initialization.obj
 0001:0001fb67       ??$create_environment@D@@YAQAPADQAD@Z 10020b67 f   libucrt:environment_initialization.obj
 0001:0001fc38       ??$free_environment@_W@@YAXQAPA_W@Z 10020c38 f   libucrt:environment_initialization.obj
 0001:0001fc38       ??$free_environment@D@@YAXQAPAD@Z 10020c38 f   libucrt:environment_initialization.obj
 0001:0001fca7       ??$uninitialize_environment_internal@D@@YAXAAPAPAD@Z 10020ca7 f   libucrt:environment_initialization.obj
 0001:0001fcc2       ??$uninitialize_environment_internal@_W@@YAXAAPAPA_W@Z 10020cc2 f   libucrt:environment_initialization.obj
 0001:0001fe2a       ??R<lambda_275893d493268fdec8709772e3fcec0e>@@QBEHXZ 10020e2a f   libucrt:onexit.obj
 0001:0001ff4b       ??R<lambda_4e60a939b0d047cfe11ddc22648dfba9>@@QBEHXZ 10020f4b f   libucrt:onexit.obj
 0001:00020120       _initialize_global_variables 10021120 f   libucrt:initialization.obj
 0001:00020132       _initialize_c              10021132 f   libucrt:initialization.obj
 0001:0002014c       _uninitialize_environment  1002114c f   libucrt:initialization.obj
 0001:00020154       _initialize_pointers       10021154 f   libucrt:initialization.obj
 0001:00020191       _uninitialize_vcruntime    10021191 f   libucrt:initialization.obj
 0001:0002019a       _uninitialize_allocated_memory 1002119a f   libucrt:initialization.obj
 0001:0002042a       ??$common_tox_l@$1?internal_isupper_l@@YA_NHQAU__crt_locale_pointers@@@Z$1?internal_map_lower@@YAHH0@Z@@YAHHKQAU__crt_locale_pointers@@@Z 1002142a f   libucrt:tolower_toupper.obj
 0001:00020574       ?internal_isupper_l@@YA_NHQAU__crt_locale_pointers@@@Z 10021574 f   libucrt:tolower_toupper.obj
 0001:0002068d       _call_wsetlocale           1002168d f   libucrt:setlocale.obj
 0001:00020d60       $$000000                   10021d60     libucrt:sqrt.obj
 0001:00020f20       $$000000                   10021f20     libucrt:strcspn.obj
 0001:00021300       $$000000                   10022300     libucrt:strcat.obj
 0001:00021400       $$000000                   10022400     libucrt:strcmp.obj
 0001:00022258       ?construct_ptd@@YAXQAU__acrt_ptd@@QAPAU__crt_locale_data@@@Z 10023258 f   libucrt:per_thread_data.obj
 0001:000222d1       ?destroy_fls@@YGXPAX@Z     100232d1 f   libucrt:per_thread_data.obj
 0001:000222f2       ?destroy_ptd@@YAXQAU__acrt_ptd@@@Z 100232f2 f   libucrt:per_thread_data.obj
 0001:0002239b       ?replace_current_thread_locale_nolock@@YAXQAU__acrt_ptd@@QAU__crt_locale_data@@@Z 1002339b f   libucrt:per_thread_data.obj
 0001:00022645       ?fp_format_a@@YAHQBNPADIQADIH_NIQAU__crt_locale_pointers@@@Z 10023645 f   libucrt:cvt.obj
 0001:00022948       ?fp_format_e@@YAHQBNQADI1IH_NIQAU__crt_locale_pointers@@@Z 10023948 f   libucrt:cvt.obj
 0001:000229e3       ?fp_format_e_internal@@YAHQADIH_NIQAU_strflt@@1QAU__crt_locale_pointers@@@Z 100239e3 f   libucrt:cvt.obj
 0001:00022b2e       ?fp_format_f@@YAHQBNQADI1IHQAU__crt_locale_pointers@@@Z 10023b2e f   libucrt:cvt.obj
 0001:00022bbb       ?fp_format_f_internal@@YAHQADIHQAU_strflt@@_NQAU__crt_locale_pointers@@@Z 10023bbb f   libucrt:cvt.obj
 0001:00022c92       ?fp_format_g@@YAHQBNQADI1IH_NIQAU__crt_locale_pointers@@@Z 10023c92 f   libucrt:cvt.obj
 0001:00022d5a       ?fp_format_nan_or_infinity@@YAHW4__acrt_fp_class@@_NPADI1@Z 10023d5a f   libucrt:cvt.obj
 0001:00022e52       ?shift_bytes@@YAXQADI0H@Z  10023e52 f   libucrt:cvt.obj
 0001:0002319f       ??R<lambda_2af78c5f5901b1372d98f9ab3177dfa6>@@QBEXXZ 1002419f f   libucrt:wsetlocale.obj
 0001:000231fb       ??R<lambda_e378711a6f6581bf7f0efd7cdf97f5d9>@@QBEXXZ 100241fb f   libucrt:wsetlocale.obj
 0001:0002355b       __copytlocinfo_nolock      1002455b f   libucrt:wsetlocale.obj
 0001:000239c2       __wsetlocale_get_all       100249c2 f   libucrt:wsetlocale.obj
 0001:00023b5b       __wsetlocale_nolock        10024b5b f   libucrt:wsetlocale.obj
 0001:00023e40       __wsetlocale_set_cat       10024e40 f   libucrt:wsetlocale.obj
 0001:0002420c       ?initialize_inherited_file_handles_nolock@@YAXXZ 1002520c f   libucrt:ioinit.obj
 0001:000242c2       ?initialize_stdio_handles_nolock@@YAXXZ 100252c2 f   libucrt:ioinit.obj
 0001:00024eae       ??$common_flush_and_write_nolock@D@@YAHHV__crt_stdio_stream@@@Z 10025eae f   libucrt:_flsbuf.obj
 0001:00024fbf       ??$write_buffer_nolock@D@@YA_NDV__crt_stdio_stream@@@Z 10025fbf f   libucrt:_flsbuf.obj
 0001:000251c5       ?write_double_translated_ansi_nolock@@YA?AUwrite_result@?A0x4add88c5@@HQBDI@Z 100261c5 f   libucrt:write.obj
 0001:00025378       ?write_double_translated_unicode_nolock@@YA?AUwrite_result@?A0x4add88c5@@QBDI@Z 10026378 f   libucrt:write.obj
 0001:000253e5       ?write_requires_double_translation_nolock@@YA_NH@Z 100263e5 f   libucrt:write.obj
 0001:0002545b       ?write_text_ansi_nolock@@YA?AUwrite_result@?A0x4add88c5@@HQBDI@Z 1002645b f   libucrt:write.obj
 0001:0002553a       ?write_text_utf16le_nolock@@YA?AUwrite_result@?A0x4add88c5@@HQBDI@Z 1002653a f   libucrt:write.obj
 0001:00025628       ?write_text_utf8_nolock@@YA?AUwrite_result@?A0x4add88c5@@HQBDI@Z 10026628 f   libucrt:write.obj
 0001:00025c8a       ??$common_refill_and_read_nolock@D@@YAHV__crt_stdio_stream@@@Z 10026c8a f   libucrt:_filbuf.obj
 0001:00025e16       ?<helper_func_stdcall>@<lambda_5a01b672d24c8480ee9d6bdb50dd3881>@@CGHPA_W@Z 10026e16 f   libucrt:winapi_thunks.obj
 0001:00025f08       ?try_get_CompareStringEx@@YAP6GHPB_WK0H0HPAU_nlsversioninfo@@PAXJ@ZXZ 10026f08 f   libucrt:winapi_thunks.obj
 0001:00025f22       ?try_get_function@@YAPAXW4function_id@?A0x9b56aee1@@QBDQBW4module_id@2@2@Z 10026f22 f   libucrt:winapi_thunks.obj
 0001:00025fc0       ?try_get_module@@YAPAUHINSTANCE__@@W4module_id@?A0x9b56aee1@@@Z 10026fc0 f   libucrt:winapi_thunks.obj
 0001:00026676       ??$common_ftell@_J@@YA_JV__crt_stdio_stream@@@Z 10027676 f   libucrt:ftell.obj
 0001:000266f2       ??$common_ftell_nolock@_J@@YA_JV__crt_stdio_stream@@@Z 100276f2 f   libucrt:ftell.obj
 0001:00026887       ?common_ftell_read_mode_nolock@@YA_JV__crt_stdio_stream@@_J1@Z 10027887 f   libucrt:ftell.obj
 0001:00026a0b       ?common_ftell_translated_utf8_nolock@@YA_JV__crt_stdio_stream@@_J@Z 10027a0b f   libucrt:ftell.obj
 0001:00026c19       ??$common_lseek@_J@@YA_JH_JH@Z 10027c19 f   libucrt:lseek.obj
 0001:00026d1e       ??$common_lseek_nolock@_J@@YA_JH_JH@Z 10027d1e f   libucrt:lseek.obj
 0001:00026dd2       ?__acrt_LCMapStringA_stat@@YAHPAU__crt_locale_pointers@@PB_WKPBDHPADHHH@Z 10027dd2 f   libucrt:lcmapstringa.obj
 0001:000270a5       ??R<lambda_ad1ced32f4ac17aa236e5ef05d6b3b7c>@@QBEXXZ 100280a5 f   libucrt:mbctype.obj
 0001:00027169       ?CPtoLocaleName@@YAPB_WH@Z 10028169 f   libucrt:mbctype.obj
 0001:000271a7       ?getSystemCP@@YAHH@Z       100281a7 f   libucrt:mbctype.obj
 0001:0002721a       ?setSBCS@@YAXPAU__crt_multibyte_data@@@Z 1002821a f   libucrt:mbctype.obj
 0001:0002727f       ?setSBUpLow@@YAXPAU__crt_multibyte_data@@@Z 1002827f f   libucrt:mbctype.obj
 0001:00027413       ?setmbcp_internal@@YAHH_N@Z 10028413 f   libucrt:mbctype.obj
 0001:000277c5       ?find_end_of_double_null_terminated_sequence@@YAPB_WQB_W@Z 100287c5 f   libucrt:get_environment_from_os.obj
 0001:00027a7d       ?get_global_action_nolock@@YAPAP6AXH@ZH@Z 10028a7d f   libucrt:signal.obj
 0001:00027abf       ?siglookup@@YAPAU__crt_signal_action_t@@HQAU1@@Z 10028abf f   libucrt:signal.obj
 0001:00027df9       ?_mbstowcs_l_helper@@YAIPA_WPBDIPAU__crt_locale_pointers@@@Z 10028df9 f   libucrt:mbstowcs.obj
 0001:00028075       ?_wcstombs_l_helper@@YAIPADPB_WIPAU__crt_locale_pointers@@@Z 10029075 f   libucrt:wcstombs.obj
 0001:000283c9       ?InternalGetLocaleInfoA@@YAHQAU__crt_locale_pointers@@QB_WKQADH@Z 100293c9 f   libucrt:getlocaleinfoa.obj
 0001:000287a0       $$000000                   100297a0     libucrt:87disp.obj
 0001:000289a0       $$000000                   100299a0     libucrt:genexcep.obj
 0001:00028a00       $$000000                   10029a00     libucrt:common.obj
 0001:0002a54b       _memcpy_s                  1002b54b f   libucrt:mbctype.obj
 0001:0002a54b       _memcpy_s                  1002b54b f   libucrt:atof.obj
 0001:0002a54b       _memcpy_s                  1002b54b f   libucrt:cfout.obj
 0001:0002ad61       ?free_crt_array_internal@@YAXQAPBXI@Z 1002bd61 f   libucrt:inittime.obj
 0001:0002ad9d       ?initialize_lc_time@@YA_NQAU__crt_lc_time_data@@QAU__crt_locale_data@@@Z 1002bd9d f   libucrt:inittime.obj
 0001:0002b1f2       ??$common_tcsncpy_s@_W@@YAHQA_WIQB_WI@Z 1002c1f2 f   libucrt:wcsncpy_s.obj
 0001:0002b399       _GetLocaleNameFromDefault  1002c399 f   libucrt:get_qualified_locale.obj
 0001:0002b422       _GetLocaleNameFromLangCountry 1002c422 f   libucrt:get_qualified_locale.obj
 0001:0002b4bc       _GetLocaleNameFromLanguage 1002c4bc f   libucrt:get_qualified_locale.obj
 0001:0002b517       _GetPrimaryLen             1002c517 f   libucrt:get_qualified_locale.obj
 0001:0002b54b       _LangCountryEnumProcEx@12  1002c54b f   libucrt:get_qualified_locale.obj
 0001:0002b835       _LanguageEnumProcEx@12     1002c835 f   libucrt:get_qualified_locale.obj
 0001:0002b8f6       _ProcessCodePage           1002c8f6 f   libucrt:get_qualified_locale.obj
 0001:0002b9dd       _TestDefaultCountry        1002c9dd f   libucrt:get_qualified_locale.obj
 0001:0002ba28       _TranslateName             1002ca28 f   libucrt:get_qualified_locale.obj
 0001:0002bc66       _CountryEnumProc@4         1002cc66 f   libucrt:getqloc_downlevel.obj
 0001:0002bd0f       _GetLcidFromCountry        1002cd0f f   libucrt:getqloc_downlevel.obj
 0001:0002bd5a       _GetLcidFromLangCountry    1002cd5a f   libucrt:getqloc_downlevel.obj
 0001:0002bdf5       _GetLcidFromLanguage       1002cdf5 f   libucrt:getqloc_downlevel.obj
 0001:0002be56       _GetPrimaryLen             1002ce56 f   libucrt:getqloc_downlevel.obj
 0001:0002be82       _LangCountryEnumProc@4     1002ce82 f   libucrt:getqloc_downlevel.obj
 0001:0002c0d2       _LanguageEnumProc@4        1002d0d2 f   libucrt:getqloc_downlevel.obj
 0001:0002c1aa       _LcidFromHexString         1002d1aa f   libucrt:getqloc_downlevel.obj
 0001:0002c1fb       _ProcessCodePage           1002d1fb f   libucrt:getqloc_downlevel.obj
 0001:0002c2de       _TestDefaultCountry        1002d2de f   libucrt:getqloc_downlevel.obj
 0001:0002c302       _TestDefaultLanguage       1002d302 f   libucrt:getqloc_downlevel.obj
 0001:0002c372       _TranslateName             1002d372 f   libucrt:getqloc_downlevel.obj
 0001:0002c85e       ___get_abstract_control_sse2 1002d85e f   libucrt:_fenvutils.obj
 0001:0002c8db       ___get_abstract_control_x87 1002d8db f   libucrt:_fenvutils.obj
 0001:0002c94e       ___get_machine_control     1002d94e f   libucrt:_fenvutils.obj
 0001:0002c9bf       ___get_machine_control_sse2 1002d9bf f   libucrt:_fenvutils.obj
 0001:0002ca3f       ___get_machine_status_sse2 1002da3f f   libucrt:_fenvutils.obj
 0001:0002caa0       ___get_machine_status_x87  1002daa0 f   libucrt:_fenvutils.obj
 0001:0002cd31       ??$translate_text_mode_nolock@D@@YAHHQADI@Z 1002dd31 f   libucrt:read.obj
 0001:0002ce88       ??$translate_text_mode_nolock@_W@@YAHHQA_WI@Z 1002de88 f   libucrt:read.obj
 0001:0002d048       ?translate_ansi_or_utf8_nolock@@YAHHQADIQA_WI@Z 1002e048 f   libucrt:read.obj
 0001:0002d198       ?translate_utf16_from_console_nolock@@YAHHQA_WI@Z 1002e198 f   libucrt:read.obj
 0001:0002d6e1       ?GetTableIndexFromLocaleName@@YAHPB_W@Z 1002e6e1 f   libucrt:lcidtoname_downlevel.obj
 0001:0002d873       ?initialize_multibyte@@YAHXZ 1002e873 f   libucrt:multibyte_initializer.obj
 0001:0002d8b5       ??$common_tcsncpy_s@D@@YAHQADIQBDI@Z 1002e8b5 f   libucrt:strncpy_s.obj
 0001:0002db30       $$000000                   1002eb30     libucrt:strncmp.obj
 0001:0002de40       $$000000                   1002ee40     libucrt:log10.obj
 0001:0002df90       $$000000                   1002ef90     libucrt:ceil_pentium4.obj
 0001:0002e0ad       ??$common_xtox@K_W@@YAHKQA_WII_N@Z 1002f0ad f   libucrt:xtoa.obj
 0001:0002e13b       ??$common_xtox_s@K_W@@YAHKQA_WII_N@Z 1002f13b f   libucrt:xtoa.obj
 0001:0002e210       $$000000                   1002f210     libucrt:_strnicm.obj
 0001:0002e3a0       $$000000                   1002f3a0     libucrt:log10_pentium4.obj
 0001:0002e630       $$000000                   1002f630     libucrt:87tran.obj
 0001:0002ed40       $$000000                   1002fd40     LIBCMT:llmul.obj
 0001:0002ed80       $$000000                   1002fd80     LIBCMT:ulldiv.obj
 0001:0002edf0       $$000000                   1002fdf0     LIBCMT:alloca16.obj
 0001:0002ef70       $$000000                   1002ff70     LIBCMT:ulldvrm.obj
 0001:0002f010       $$000000                   10030010     LIBCMT:llshl.obj
 0001:0002f030       $$000000                   10030030     LIBCMT:ullshr.obj
 0001:0002f050       $$000000                   10030050     LIBCMT:_sehprolg4gs_.obj
 0001:0002f0b0       $$000000                   100300b0     LIBCMT:lldvrm.obj
 0001:0002f190       $$000000                   10030190     LIBCMT:chkstk.obj
 0001:0002f1c0       $$000000                   100301c0     LIBCMT:lldiv.obj
 0001:0002f270       $$000000                   10030270     LIBCMT:_ftol2_.obj
 0001:0002f330       $$000000                   10030330     libvcruntime:strrchr.obj
 0001:0002f520       $$000000                   10030520     libucrt:87ctriga.obj
 0001:0002f540       $$000000                   10030540     libucrt:87triga.obj
 0001:0002f5f0       $$000000                   100305f0     libucrt:87cdisp.obj
 0001:0002f880       __unwindfunclet$??0_Locinfo@std@@QAE@PBD@Z$0 10030880 f   Client.obj
 0001:0002f888       __unwindfunclet$??0_Locinfo@std@@QAE@PBD@Z$1 10030888 f   Client.obj
 0001:0002f893       __unwindfunclet$??0_Locinfo@std@@QAE@PBD@Z$2 10030893 f   Client.obj
 0001:0002f89e       __unwindfunclet$??0_Locinfo@std@@QAE@PBD@Z$3 1003089e f   Client.obj
 0001:0002f8a9       __unwindfunclet$??0_Locinfo@std@@QAE@PBD@Z$4 100308a9 f   Client.obj
 0001:0002f8b4       __unwindfunclet$??0_Locinfo@std@@QAE@PBD@Z$5 100308b4 f   Client.obj
 0001:0002f8bf       __unwindfunclet$??0_Locinfo@std@@QAE@PBD@Z$6 100308bf f   Client.obj
 0001:0002f8ca       __ehhandler$??0_Locinfo@std@@QAE@PBD@Z 100308ca f   Client.obj
 0001:0002f8e0       __ehhandler$??1_Locinfo@std@@QAE@XZ 100308e0 f   Client.obj
 0001:0002f8e0       __ehhandler$??1locale@std@@QAE@XZ 100308e0 f   Client.obj
 0001:0002f8f0       __unwindfunclet$?_Getcat@?$ctype@D@std@@SAIPAPBVfacet@locale@2@PBV42@@Z$0 100308f0 f   Client.obj
 0001:0002f8ff       __ehhandler$?_Getcat@?$ctype@D@std@@SAIPAPBVfacet@locale@2@PBV42@@Z 100308ff f   Client.obj
 0001:0002f910       __unwindfunclet$?_Makestr@_System_error@std@@CA?AV?$basic_string@DU?$char_traits@D@std@@V?$allocator@D@2@@2@Verror_code@2@V32@@Z$0 10030910 f   Client.obj
 0001:0002f918       __unwindfunclet$?_Makestr@_System_error@std@@CA?AV?$basic_string@DU?$char_traits@D@std@@V?$allocator@D@2@@2@Verror_code@2@V32@@Z$1 10030918 f   Client.obj
 0001:0002f920       __ehhandler$?_Makestr@_System_error@std@@CA?AV?$basic_string@DU?$char_traits@D@std@@V?$allocator@D@2@@2@Verror_code@2@V32@@Z 10030920 f   Client.obj
 0001:0002f930       __unwindfunclet$?_Endwrite@?$basic_filebuf@DU?$char_traits@D@std@@@std@@IAE_NXZ$0 10030930 f   main.obj
 0001:0002f930       __unwindfunclet$??0failure@ios_base@std@@QAE@PBDABVerror_code@2@@Z$1 10030930 f   Client.obj
 0001:0002f938       __ehhandler$??0failure@ios_base@std@@QAE@PBDABVerror_code@2@@Z 10030938 f   Client.obj
 0001:0002f938       __ehhandler$?_Endwrite@?$basic_filebuf@DU?$char_traits@D@std@@@std@@IAE_NXZ 10030938 f   main.obj
 0001:0002f950       __unwindfunclet$??__Eg_Menu@@YAXXZ$0 10030950 f   Client.obj
 0001:0002f950       __unwindfunclet$??__Fg_Menu@@YAXXZ$0 10030950 f   Client.obj
 0001:0002f950       __unwindfunclet$?_Init@ios_base@std@@IAEXXZ$0 10030950 f   Client.obj
 0001:0002f950       __unwindfunclet$?getloc@ios_base@std@@QBE?AVlocale@2@XZ$0 10030950 f   Client.obj
 0001:0002f950       __unwindfunclet$??0?$basic_filebuf@DU?$char_traits@D@std@@@std@@QAE@PAU_iobuf@@@Z$1 10030950 f   main.obj
 0001:0002f956       __ehhandler$??__Eg_Menu@@YAXXZ 10030956 f   Client.obj
 0001:0002f956       __ehhandler$??__Fg_Menu@@YAXXZ 10030956 f   Client.obj
 0001:0002f956       __ehhandler$?getloc@ios_base@std@@QBE?AVlocale@2@XZ 10030956 f   Client.obj
 0001:0002f956       __ehhandler$?_Init@ios_base@std@@IAEXXZ 10030956 f   Client.obj
 0001:0002f956       __ehhandler$??0?$basic_filebuf@DU?$char_traits@D@std@@@std@@QAE@PAU_iobuf@@@Z 10030956 f   main.obj
 0001:0002f960       __unwindfunclet$??_Gios_base@std@@UAEPAXI@Z$0 10030960 f   Client.obj
 0001:0002f960       __unwindfunclet$??1?$basic_ios@DU?$char_traits@D@std@@@std@@UAE@XZ$0 10030960 f   Client.obj
 0001:0002f966       __ehhandler$??1?$basic_ios@DU?$char_traits@D@std@@@std@@UAE@XZ 10030966 f   Client.obj
 0001:0002f966       __ehhandler$??_Gios_base@std@@UAEPAXI@Z 10030966 f   Client.obj
 0001:0002f970       __unwindfunclet$?SaveSettingsForWeapons@@YAXQAD@Z$0 10030970 f   Client.obj
 0001:0002f978       __unwindfunclet$?SaveSettingsForWeapons@@YAXQAD@Z$1 10030978 f   Client.obj
 0001:0002f980       __unwindfunclet$?SaveSettingsForWeapons@@YAXQAD@Z$2 10030980 f   Client.obj
 0001:0002f98b       __unwindfunclet$?SaveSettingsForWeapons@@YAXQAD@Z$3 1003098b f   Client.obj
 0001:0002f996       __unwindfunclet$?SaveSettingsForWeapons@@YAXQAD@Z$4 10030996 f   Client.obj
 0001:0002f9a1       __unwindfunclet$?SaveSettingsForWeapons@@YAXQAD@Z$5 100309a1 f   Client.obj
 0001:0002f9ac       __unwindfunclet$?SaveSettingsForWeapons@@YAXQAD@Z$6 100309ac f   Client.obj
 0001:0002f9b7       __unwindfunclet$?SaveSettingsForWeapons@@YAXQAD@Z$7 100309b7 f   Client.obj
 0001:0002f9c2       __unwindfunclet$?SaveSettingsForWeapons@@YAXQAD@Z$8 100309c2 f   Client.obj
 0001:0002f9cd       __unwindfunclet$?SaveSettingsForWeapons@@YAXQAD@Z$9 100309cd f   Client.obj
 0001:0002f9d5       __ehhandler$?SaveSettingsForWeapons@@YAXQAD@Z 100309d5 f   Client.obj
 0001:0002f9e0       __unwindfunclet$?ReadSettingsForWeapons@@YAXQAD@Z$0 100309e0 f   Client.obj
 0001:0002f9e8       __unwindfunclet$?ReadSettingsForWeapons@@YAXQAD@Z$1 100309e8 f   Client.obj
 0001:0002f9f0       __unwindfunclet$?ReadSettingsForWeapons@@YAXQAD@Z$2 100309f0 f   Client.obj
 0001:0002f9fb       __unwindfunclet$?ReadSettingsForWeapons@@YAXQAD@Z$3 100309fb f   Client.obj
 0001:0002fa06       __unwindfunclet$?ReadSettingsForWeapons@@YAXQAD@Z$4 10030a06 f   Client.obj
 0001:0002fa11       __unwindfunclet$?ReadSettingsForWeapons@@YAXQAD@Z$5 10030a11 f   Client.obj
 0001:0002fa1c       __unwindfunclet$?ReadSettingsForWeapons@@YAXQAD@Z$6 10030a1c f   Client.obj
 0001:0002fa27       __unwindfunclet$?ReadSettingsForWeapons@@YAXQAD@Z$7 10030a27 f   Client.obj
 0001:0002fa32       __unwindfunclet$?ReadSettingsForWeapons@@YAXQAD@Z$8 10030a32 f   Client.obj
 0001:0002fa3d       __unwindfunclet$?ReadSettingsForWeapons@@YAXQAD@Z$9 10030a3d f   Client.obj
 0001:0002fa48       __unwindfunclet$?ReadSettingsForWeapons@@YAXQAD@Z$10 10030a48 f   Client.obj
 0001:0002fa53       __unwindfunclet$?ReadSettingsForWeapons@@YAXQAD@Z$11 10030a53 f   Client.obj
 0001:0002fa5b       __unwindfunclet$?ReadSettingsForWeapons@@YAXQAD@Z$12 10030a5b f   Client.obj
 0001:0002fa63       __ehhandler$?ReadSettingsForWeapons@@YAXQAD@Z 10030a63 f   Client.obj
 0001:0002fa70       __unwindfunclet$??_G?$basic_ostream@DU?$char_traits@D@std@@@std@@UAEPAXI@Z$0 10030a70 f   Client.obj
 0001:0002fa70       __unwindfunclet$??1?$basic_filebuf@DU?$char_traits@D@std@@@std@@UAE@XZ$0 10030a70 f   main.obj
 0001:0002fa70       __unwindfunclet$??_G?$basic_ofstream@DU?$char_traits@D@std@@@std@@UAEPAXI@Z$0 10030a70 f   main.obj
 0001:0002fa70       __unwindfunclet$??_G?$basic_streambuf@DU?$char_traits@D@std@@@std@@UAEPAXI@Z$0 10030a70 f   Client.obj
 0001:0002fa76       __unwindfunclet$??_G?$basic_ofstream@DU?$char_traits@D@std@@@std@@UAEPAXI@Z$3 10030a76 f   main.obj
 0001:0002fa76       __unwindfunclet$??_G?$basic_streambuf@DU?$char_traits@D@std@@@std@@UAEPAXI@Z$1 10030a76 f   Client.obj
 0001:0002fa76       __unwindfunclet$??1?$basic_filebuf@DU?$char_traits@D@std@@@std@@UAE@XZ$1 10030a76 f   main.obj
 0001:0002fa76       __unwindfunclet$??_G?$basic_ostream@DU?$char_traits@D@std@@@std@@UAEPAXI@Z$2 10030a76 f   Client.obj
 0001:0002fa7c       __unwindfunclet$??_G?$basic_ostream@DU?$char_traits@D@std@@@std@@UAEPAXI@Z$3 10030a7c f   Client.obj
 0001:0002fa7c       __unwindfunclet$??_G?$basic_streambuf@DU?$char_traits@D@std@@@std@@UAEPAXI@Z$2 10030a7c f   Client.obj
 0001:0002fa7c       __unwindfunclet$??_G?$basic_ofstream@DU?$char_traits@D@std@@@std@@UAEPAXI@Z$4 10030a7c f   main.obj
 0001:0002fa7c       __unwindfunclet$??1?$basic_filebuf@DU?$char_traits@D@std@@@std@@UAE@XZ$2 10030a7c f   main.obj
 0001:0002fa82       __ehhandler$??_G?$basic_ofstream@DU?$char_traits@D@std@@@std@@UAEPAXI@Z 10030a82 f   main.obj
 0001:0002fa82       __ehhandler$??_G?$basic_ostream@DU?$char_traits@D@std@@@std@@UAEPAXI@Z 10030a82 f   Client.obj
 0001:0002fa82       __ehhandler$??1?$basic_filebuf@DU?$char_traits@D@std@@@std@@UAE@XZ 10030a82 f   main.obj
 0001:0002fa82       __ehhandler$??_G?$basic_streambuf@DU?$char_traits@D@std@@@std@@UAEPAXI@Z 10030a82 f   Client.obj
 0001:0002fa90       __ehhandler$?_Copy@?$basic_string@DU?$char_traits@D@std@@V?$allocator@D@2@@std@@QAEXII@Z 10030a90 f   Client.obj
 0001:0002faa0       __unwindfunclet$??$use_facet@V?$codecvt@DDU_Mbstatet@@@std@@@std@@YAABV?$codecvt@DDU_Mbstatet@@@0@ABVlocale@0@@Z$0 10030aa0 f   main.obj
 0001:0002faa0       __unwindfunclet$??$use_facet@V?$ctype@D@std@@@std@@YAABV?$ctype@D@0@ABVlocale@0@@Z$0 10030aa0 f   Client.obj
 0001:0002faa8       __ehhandler$??$use_facet@V?$codecvt@DDU_Mbstatet@@@std@@@std@@YAABV?$codecvt@DDU_Mbstatet@@@0@ABVlocale@0@@Z 10030aa8 f   main.obj
 0001:0002faa8       __ehhandler$??$use_facet@V?$ctype@D@std@@@std@@YAABV?$ctype@D@0@ABVlocale@0@@Z 10030aa8 f   Client.obj
 0001:0002fac0       __unwindfunclet$??$?HDU?$char_traits@D@std@@V?$allocator@D@1@@std@@YA?AV?$basic_string@DU?$char_traits@D@std@@V?$allocator@D@2@@0@ABV10@PBD@Z$0 10030ac0 f   Client.obj
 0001:0002fad9       __ehhandler$??$?HDU?$char_traits@D@std@@V?$allocator@D@1@@std@@YA?AV?$basic_string@DU?$char_traits@D@std@@V?$allocator@D@2@@0@ABV10@PBD@Z 10030ad9 f   Client.obj
 0001:0002faf0       __unwindfunclet$?init@?$basic_ios@DU?$char_traits@D@std@@@std@@IAEXPAV?$basic_streambuf@DU?$char_traits@D@std@@@2@_N@Z$0 10030af0 f   Client.obj
 0001:0002faf8       __unwindfunclet$?init@?$basic_ios@DU?$char_traits@D@std@@@std@@IAEXPAV?$basic_streambuf@DU?$char_traits@D@std@@@2@_N@Z$1 10030af8 f   Client.obj
 0001:0002fafe       __ehhandler$?init@?$basic_ios@DU?$char_traits@D@std@@@std@@IAEXPAV?$basic_streambuf@DU?$char_traits@D@std@@@2@_N@Z 10030afe f   Client.obj
 0001:0002fb10       __unwindfunclet$??__Fofile@@YAXXZ$0 10030b10 f   main.obj
 0001:0002fb16       __unwindfunclet$??__Fofile@@YAXXZ$3 10030b16 f   main.obj
 0001:0002fb1c       __unwindfunclet$??__Fofile@@YAXXZ$4 10030b1c f   main.obj
 0001:0002fb22       __ehhandler$??__Fofile@@YAXXZ 10030b22 f   main.obj
 0001:0002fb30       __unwindfunclet$??0?$basic_ofstream@DU?$char_traits@D@std@@@std@@QAE@XZ$0 10030b30 f   main.obj
 0001:0002fb4c       __unwindfunclet$??0?$basic_ofstream@DU?$char_traits@D@std@@@std@@QAE@XZ$1 10030b4c f   main.obj
 0001:0002fb57       __ehhandler$??0?$basic_ofstream@DU?$char_traits@D@std@@@std@@QAE@XZ 10030b57 f   main.obj
 0001:0002fb70       __unwindfunclet$?uflow@?$basic_filebuf@DU?$char_traits@D@std@@@std@@MAEHXZ$0 10030b70 f   main.obj
 0001:0002fb78       __ehhandler$?uflow@?$basic_filebuf@DU?$char_traits@D@std@@@std@@MAEHXZ 10030b78 f   main.obj
 0001:0002fb90       __unwindfunclet$?overflow@?$basic_filebuf@DU?$char_traits@D@std@@@std@@MAEHH@Z$0 10030b90 f   main.obj
 0001:0002fb98       __ehhandler$?overflow@?$basic_filebuf@DU?$char_traits@D@std@@@std@@MAEHH@Z 10030b98 f   main.obj
 0001:0002fbb0       __unwindfunclet$?_Getcat@?$codecvt@DDU_Mbstatet@@@std@@SAIPAPBVfacet@locale@2@PBV42@@Z$0 10030bb0 f   main.obj
 0001:0002fbbf       __ehhandler$?_Getcat@?$codecvt@DDU_Mbstatet@@@std@@SAIPAPBVfacet@locale@2@PBV42@@Z 10030bbf f   main.obj
 0001:0002fbc9       __ehhandler$??1_Fac_node@std@@QAE@XZ 10030bc9 f   libcpmt:locale0.obj
 0001:0002fbe4       __unwindfunclet$?_Init@locale@std@@CAPAV_Locimp@12@_N@Z$0 10030be4 f   libcpmt:locale0.obj
 0001:0002fbec       __ehhandler$?_Init@locale@std@@CAPAV_Locimp@12@_N@Z 10030bec f   libcpmt:locale0.obj
 0001:0002fc07       __unwindfunclet$?_Locimp_dtor@_Locimp@locale@std@@CAXPAV123@@Z$0 10030c07 f   libcpmt:locale0.obj
 0001:0002fc0f       __ehhandler$?_Locimp_dtor@_Locimp@locale@std@@CAXPAV123@@Z 10030c0f f   libcpmt:locale0.obj
 0001:0002fc2a       __ehhandler$??1_Locimp@locale@std@@MAE@XZ 10030c2a f   libcpmt:locale0.obj
 0001:0002fc2a       __ehhandler$??1_Init_atexit@@QAE@XZ 10030c2a f   libcpmt:iosptrs.obj
 0001:0002fc45       __ehhandler$?CallUnexpected@@YAXPBU_s_ESTypeList@@@Z 10030c45 f   libvcruntime:frame.obj
 0001:0002fc60       ??__Fg_Menu@@YAXXZ         10030c60 f   Client.obj
 0001:0002fca0       ??__Fg_Local@@YAXXZ        10030ca0 f   Client.obj
 0001:0002fcf0       ??__Fd_vSoundOrigin@@YAXXZ 10030cf0 f   Client.obj
 0001:0002fd30       ??__Fd_dwSoundTime@@YAXXZ  10030d30 f   Client.obj
 0001:0002fd80       ??__FUnlinkedModules@@YAXXZ 10030d80 f   main.obj
 0001:0002fde0       ??__Fofile@@YAXXZ          10030de0 f   main.obj
 0001:0002fe80       ??__FWeaponListStruct@@YAXXZ 10030e80 f   weaponslist.obj
 0001:0002fee0       ??__Finitlocks@std@@YAXXZ  10030ee0 f   libcpmt:xlock.obj
 0001:0002feea       ??__F_Fac_tidy_reg@std@@YAXXZ 10030eea f   libcpmt:locale0.obj
 0001:0002fef4       ??__Fclassic_locale@std@@YAXXZ 10030ef4 f   libcpmt:locale0.obj
 0001:0002fefe       ??__Finit_atexit@@YAXXZ    10030efe f   libcpmt:iosptrs.obj
 0001:0002ff08       ??__Finitlocks@std@@YAXXZ  10030f08 f   libcpmt:iosptrs.obj
 0002:00000184       ?initlocks$initializer$@std@@3P6AXXZA 10031184     libcpmt:xlock.obj
 0002:00000188       ?initlocks$initializer$@std@@3P6AXXZA 10031188     libcpmt:iosptrs.obj
 0002:0000018c       ?init_atexit$initializer$@@3P6AXXZA 1003118c     libcpmt:iosptrs.obj
 0002:00000190       ?_Fac_tidy_reg$initializer$@std@@3P6AXXZA 10031190     libcpmt:locale0.obj
 0002:00000194       ?classic_locale$initializer$@std@@3P6AXXZA 10031194     libcpmt:locale0.obj
 0002:00000198       ?g_Mini$initializer$@@3P6AXXZA 10031198     cFont.obj
 0002:0000019c       ?g_Info$initializer$@@3P6AXXZA 1003119c     cFont.obj
 0002:000001a0       ?g_Menu$initializer$@@3P6AXXZA 100311a0     Client.obj
 0002:000001a4       ?g_Local$initializer$@@3P6AXXZA 100311a4     Client.obj
 0002:000001a8       ?g_Player$initializer$@@3P6AXXZA 100311a8     Client.obj
 0002:000001ac       ?g_Sound$initializer$@@3P6AXXZA 100311ac     Client.obj
 0002:000001b0       ?d_vSoundOrigin$initializer$@@3P6AXXZA 100311b0     Client.obj
 0002:000001b4       ?d_dwSoundTime$initializer$@@3P6AXXZA 100311b4     Client.obj
 0002:000001b8       ?UnlinkedModules$initializer$@@3P6AXXZA 100311b8     main.obj
 0002:000001bc       ?ofile$initializer$@@3P6AXXZA 100311bc     main.obj
 0002:000001c0       ?WeaponListStruct$initializer$@@3P6AXXZA 100311c0     weaponslist.obj
 0002:000001cc       ?__scrt_initialize_tss_var@@3P6AHXZA 100311cc     LIBCMT:thread_safe_statics.obj
 0002:000001d0       ?pinit@@3P6AHXZA           100311d0     libcpmt:winapisupp.obj
 0002:000002d8       _GS_ExceptionPointers      100312d8     LIBCMT:gs_report.obj
 0002:000002e0       _digits                    100312e0     libcpmt:xstoul.obj
 0002:00000308       _ndigs                     10031308     libcpmt:xstoul.obj
 0002:00000390       ?_Win_errtab@std@@3QBU_Win_errtab_t@1@B 10031390     libcpmt:syserror.obj
 0002:000005e0       ?_Sys_errtab@std@@3QBU_Sys_errtab_t@1@B 100315e0     libcpmt:syserror.obj
 0002:00000e84       _digits                    10031e84     libcpmt:xstoull.obj
 0002:00000eac       _ndigs                     10031eac     libcpmt:xstoull.obj
 0002:00000ed4       ?digits@?1??_Stoxflt@@9@9  10031ed4     libcpmt:xstoxflt.obj
 0002:00000eec       ?vals@?1??_Stoxflt@@9@9    10031eec     libcpmt:xstoxflt.obj
 0002:00000f10       _tenth                     10031f10     libcpmt:xfdtento.obj
 0002:00000f88       _tenth                     10031f88     libcpmt:xdtento.obj
 0002:00000fa8       _tenth                     10031fa8     libcpmt:xldtento.obj
 0002:00000fc8       ?mask@?3??_FDint@@9@9      10031fc8     libcpmt:xfdint.obj
 0002:00000fe8       ?sub@?3??_FDint@@9@9       10031fe8     libcpmt:xfdint.obj
 0002:00001320       ?mask@?3??_Dint@@9@9       10032320     libcpmt:xdint.obj
 0002:00001340       ?sub@?3??_Dint@@9@9        10032340     libcpmt:xdint.obj
 0002:00001350       ?LcidToLocaleNameTable@@3QBULcidToLocaleName@@B 10032350     libcpmt:winapinls.obj
 0002:00001a70       ?LocaleNameToIndexTable@@3QBULocaleNameIndex@@B 10032a70     libcpmt:winapinls.obj
 0002:00004530       ?module_names@?A0x4d80baa5@@3QBQB_WB 10035530     libvcruntime:winapi_downlevel.obj
 0002:000045e0       ?candidate_modules@?1??try_get_EventRegister@@YAP6GKPBU_GUID@@P6GX0KE_K1PAU_EVENT_FILTER_DESCRIPTOR@@PAX@Z3PA_K@ZXZ@4QBW4module_id@?A0x4d80baa5@@B 100355e0     libvcruntime:winapi_downlevel.obj
 0002:000045f4       ?candidate_modules@?1??try_get_EventSetInformation@@YAP6GK_KW4_EVENT_INFO_CLASS@@PAXK@ZXZ@4QBW4module_id@?A0x4d80baa5@@B 100355f4     libvcruntime:winapi_downlevel.obj
 0002:0000460c       ?candidate_modules@?1??try_get_EventUnregister@@YAP6GK_K@ZXZ@4QBW4module_id@?A0x4d80baa5@@B 1003560c     libvcruntime:winapi_downlevel.obj
 0002:00004620       ?candidate_modules@?1??try_get_EventWriteTransfer@@YAP6GK_KPBU_EVENT_DESCRIPTOR@@PBU_GUID@@2KPAU_EVENT_DATA_DESCRIPTOR@@@ZXZ@4QBW4module_id@?A0x4d80baa5@@B 10035620     libvcruntime:winapi_downlevel.obj
 0002:00004638       ?candidate_modules@?1??try_get_FlsAlloc@@YAP6GKP6GXPAX@Z@ZXZ@4QBW4module_id@?A0x4d80baa5@@B 10035638     libvcruntime:winapi_downlevel.obj
 0002:00004640       ?candidate_modules@?1??try_get_FlsFree@@YAP6GHK@ZXZ@4QBW4module_id@?A0x4d80baa5@@B 10035640     libvcruntime:winapi_downlevel.obj
 0002:00004648       ?candidate_modules@?1??try_get_FlsGetValue@@YAP6GPAXK@ZXZ@4QBW4module_id@?A0x4d80baa5@@B 10035648     libvcruntime:winapi_downlevel.obj
 0002:00004650       ?candidate_modules@?1??try_get_FlsSetValue@@YAP6GHKPAX@ZXZ@4QBW4module_id@?A0x4d80baa5@@B 10035650     libvcruntime:winapi_downlevel.obj
 0002:00004658       ?candidate_modules@?1??try_get_InitializeCriticalSectionEx@@YAP6GHPAU_RTL_CRITICAL_SECTION@@KK@ZXZ@4QBW4module_id@?A0x4d80baa5@@B 10035658     libvcruntime:winapi_downlevel.obj
 0002:00004684       ?ExceptionTemplate@?1??_CxxThrowException@@9@8@4UEHExceptionRecord@@B 10035684     libvcruntime:throw.obj
 0002:000046a8       ?tokenTable@@3QBQBDB       100356a8     libvcruntime:undname.obj
 0002:000046e0       ?nameTable@@3QBQBDB        100356e0     libvcruntime:undname.obj
 0002:00004824       ?rttiTable@@3QBQBDB        10035824     libvcruntime:undname.obj
 0002:000059c8       _errtable                  100369c8     libucrt:errno.obj
 0002:00005bf8       ___acrt_initializers       10036bf8     libucrt:initialization.obj
 0002:00006480       _NAME_                     10037480     libucrt:sqrt.obj
 0002:00006598       __first_127char            10037598     libucrt:wsetlocale.obj
 0002:00006bb8       ?_names@?1??_get_fname@@9@9 10037bb8     libucrt:fpexcept.obj
 0002:00006cc4       _over                      10037cc4     libucrt:fpctrl.obj
 0002:00006cd0       _under                     10037cd0     libucrt:fpctrl.obj
 0002:00006ce0       _module_names              10037ce0     libucrt:winapi_thunks.obj
 0002:00007180       ?candidate_modules@?1??try_get_CompareStringEx@@YAP6GHPB_WK0H0HPAU_nlsversioninfo@@PAXJ@ZXZ@4QBW4module_id@?A0x9b56aee1@@B 10038180     libucrt:winapi_thunks.obj
 0002:00007188       ?candidate_modules@?1??try_get_EnumSystemLocalesEx@@YAP6GHP6GHPA_WKJ@ZKJPAX@ZXZ@4QBW4module_id@?A0x9b56aee1@@B 10038188     libucrt:winapi_thunks.obj
 0002:000071a4       ?candidate_modules@?1??try_get_FlsAlloc@@YAP6GKP6GXPAX@Z@ZXZ@4QBW4module_id@?A0x9b56aee1@@B 100381a4     libucrt:winapi_thunks.obj
 0002:000071ac       ?candidate_modules@?1??try_get_FlsFree@@YAP6GHK@ZXZ@4QBW4module_id@?A0x9b56aee1@@B 100381ac     libucrt:winapi_thunks.obj
 0002:000071b4       ?candidate_modules@?1??try_get_FlsGetValue@@YAP6GPAXK@ZXZ@4QBW4module_id@?A0x9b56aee1@@B 100381b4     libucrt:winapi_thunks.obj
 0002:000071bc       ?candidate_modules@?1??try_get_FlsSetValue@@YAP6GHKPAX@ZXZ@4QBW4module_id@?A0x9b56aee1@@B 100381bc     libucrt:winapi_thunks.obj
 0002:000071c4       ?candidate_modules@?1??try_get_GetCurrentPackageId@@YAP6GJPAIPAE@ZXZ@4QBW4module_id@?A0x9b56aee1@@B 100381c4     libucrt:winapi_thunks.obj
 0002:000071cc       ?candidate_modules@?1??try_get_GetLocaleInfoEx@@YAP6GHPB_WKPA_WH@ZXZ@4QBW4module_id@?A0x9b56aee1@@B 100381cc     libucrt:winapi_thunks.obj
 0002:000071d4       ?candidate_modules@?1??try_get_GetUserDefaultLocaleName@@YAP6GHPA_WH@ZXZ@4QBW4module_id@?A0x9b56aee1@@B 100381d4     libucrt:winapi_thunks.obj
 0002:000071f8       ?candidate_modules@?1??try_get_InitializeCriticalSectionEx@@YAP6GHPAU_RTL_CRITICAL_SECTION@@KK@ZXZ@4QBW4module_id@?A0x9b56aee1@@B 100381f8     libucrt:winapi_thunks.obj
 0002:00007200       ?candidate_modules@?1??try_get_IsValidLocaleName@@YAP6GHPB_W@ZXZ@4QBW4module_id@?A0x9b56aee1@@B 10038200     libucrt:winapi_thunks.obj
 0002:0000721c       ?candidate_modules@?1??try_get_LCMapStringEx@@YAP6GHPB_WK0HPA_WHPAU_nlsversioninfo@@PAXJ@ZXZ@4QBW4module_id@?A0x9b56aee1@@B 1003821c     libucrt:winapi_thunks.obj
 0002:00007224       ?candidate_modules@?1??try_get_LCIDToLocaleName@@YAP6GHKPA_WHK@ZXZ@4QBW4module_id@?A0x9b56aee1@@B 10038224     libucrt:winapi_thunks.obj
 0002:00007240       ?candidate_modules@?1??try_get_LocaleNameToLCID@@YAP6GKPB_WK@ZXZ@4QBW4module_id@?A0x9b56aee1@@B 10038240     libucrt:winapi_thunks.obj
 0002:0000725c       __mb_locale_names          1003825c     libucrt:mbctype.obj
 0002:0000728e       One                        1003828e     libucrt:87disp.obj
 0002:00007296       Three                      10038296     libucrt:87disp.obj
 0002:0000729e       XAMtoTagTab                1003829e     libucrt:87disp.obj
 0002:000072b0       One                        100382b0     libucrt:common.obj
 0002:000072c4       DblMax                     100382c4     libucrt:common.obj
 0002:000072cc       DblMin                     100382cc     libucrt:common.obj
 0002:000072d4       IeeeAdjO                   100382d4     libucrt:common.obj
 0002:000072dc       IeeeAdjU                   100382dc     libucrt:common.obj
 0002:000072e4       _infinity                  100382e4     libucrt:common.obj
 0002:000072ec       _zero                      100382ec     libucrt:common.obj
 0002:000080c8       _LcidToLocaleNameTable     100390c8     libucrt:lcidtoname_downlevel.obj
 0002:000087e8       _LocaleNameToIndexTable    100397e8     libucrt:lcidtoname_downlevel.obj
 0002:00008f10       LOG_name                   10039f10     libucrt:log10.obj
 0002:00008f20       _One                       10039f20     libucrt:ceil_pentium4.obj
 0002:00008f30       _Bns                       10039f30     libucrt:ceil_pentium4.obj
 0002:00008f40       _Zero                      10039f40     libucrt:ceil_pentium4.obj
 0002:00008f50       _S                         10039f50     libucrt:ceil_pentium4.obj
 0002:00008f60       _NegZero                   10039f60     libucrt:ceil_pentium4.obj
 0002:00008f80       emask                      10039f80     libucrt:log10_pentium4.obj
 0002:00008f90       CC                         10039f90     libucrt:log10_pentium4.obj
 0002:00008fa0       Magic                      10039fa0     libucrt:log10_pentium4.obj
 0002:00008fb0       hi_mask                    10039fb0     libucrt:log10_pentium4.obj
 0002:00008fc0       LOG10_2                    10039fc0     libucrt:log10_pentium4.obj
 0002:00008fd0       place_L                    10039fd0     libucrt:log10_pentium4.obj
 0002:00008ff0       One                        10039ff0     libucrt:log10_pentium4.obj
 0002:00009000       Zero                       1003a000     libucrt:log10_pentium4.obj
 0002:00009010       Two52                      1003a010     libucrt:log10_pentium4.obj
 0002:00009020       Infs                       1003a020     libucrt:log10_pentium4.obj
 0002:00009030       NaN                        1003a030     libucrt:log10_pentium4.obj
 0002:00009040       coeff                      1003a040     libucrt:log10_pentium4.obj
 0002:0000909e       _log2max                   1003a09e     libucrt:87tran.obj
 0002:000090a8       _smallarg                  1003a0a8     libucrt:87tran.obj
 0002:000090b2       _half                      1003a0b2     libucrt:87tran.obj
 0002:0000b100       DblMax                     1003c100     libucrt:87cdisp.obj
 0002:0000b108       DblMin                     1003c108     libucrt:87cdisp.obj
 0002:0000b110       IeeeAdjO                   1003c110     libucrt:87cdisp.obj
 0002:0000b118       IeeeAdjU                   1003c118     libucrt:87cdisp.obj
 0002:0000b120       _infinity                  1003c120     libucrt:87cdisp.obj
 0002:0000b128       _zero                      1003c128     libucrt:87cdisp.obj
 0002:0000bb78       ?_TlgEvent@?3??__telemetry_main_invoke_trigger@@9@4U<unnamed-type-_TlgEvent>@?3??1@9@B 1003cb78     libvcruntime:telemetry.obj
 0002:0000bbb4       ?_TlgEvent@?3??__telemetry_main_return_trigger@@9@4U<unnamed-type-_TlgEvent>@?3??1@9@B 1003cbb4     libvcruntime:telemetry.obj
 0002:0000bbef       ?_Tlg_Microsoft_CRTProviderProv_Meta@@3U<unnamed-type-_Tlg_Microsoft_CRTProviderProv_Meta>@@B 1003cbef     libvcruntime:telemetry.obj
 0002:0000bfc8       __ehfuncinfo$??0_Locinfo@std@@QAE@PBD@Z 1003cfc8     Client.obj
 0002:0000bfec       __unwindtable$??0_Locinfo@std@@QAE@PBD@Z 1003cfec     Client.obj
 0002:0000c024       __ehfuncinfo$??1locale@std@@QAE@XZ 1003d024     Client.obj
 0002:0000c024       __ehfuncinfo$??1_Locinfo@std@@QAE@XZ 1003d024     Client.obj
 0002:0000c024       __ehfuncinfo$??1_Init_atexit@@QAE@XZ 1003d024     libcpmt:iosptrs.obj
 0002:0000c024       __ehfuncinfo$??1_Locimp@locale@std@@MAE@XZ 1003d024     libcpmt:locale0.obj
 0002:0000c024       __ehfuncinfo$??1_Fac_node@std@@QAE@XZ 1003d024     libcpmt:locale0.obj
 0002:0000c048       __ehfuncinfo$?_Getcat@?$ctype@D@std@@SAIPAPBVfacet@locale@2@PBV42@@Z 1003d048     Client.obj
 0002:0000c06c       __unwindtable$?_Getcat@?$ctype@D@std@@SAIPAPBVfacet@locale@2@PBV42@@Z 1003d06c     Client.obj
 0002:0000c074       __ehfuncinfo$?_Makestr@_System_error@std@@CA?AV?$basic_string@DU?$char_traits@D@std@@V?$allocator@D@2@@2@Verror_code@2@V32@@Z 1003d074     Client.obj
 0002:0000c098       __unwindtable$?_Makestr@_System_error@std@@CA?AV?$basic_string@DU?$char_traits@D@std@@V?$allocator@D@2@@2@Verror_code@2@V32@@Z 1003d098     Client.obj
 0002:0000c0a8       __ehfuncinfo$??0failure@ios_base@std@@QAE@PBDABVerror_code@2@@Z 1003d0a8     Client.obj
 0002:0000c0a8       __ehfuncinfo$?_Endwrite@?$basic_filebuf@DU?$char_traits@D@std@@@std@@IAE_NXZ 1003d0a8     main.obj
 0002:0000c0cc       __unwindtable$??0failure@ios_base@std@@QAE@PBDABVerror_code@2@@Z 1003d0cc     Client.obj
 0002:0000c0cc       __unwindtable$?_Endwrite@?$basic_filebuf@DU?$char_traits@D@std@@@std@@IAE_NXZ 1003d0cc     main.obj
 0002:0000c0d4       __ehfuncinfo$??0?$basic_filebuf@DU?$char_traits@D@std@@@std@@QAE@PAU_iobuf@@@Z 1003d0d4     main.obj
 0002:0000c0d4       __ehfuncinfo$?getloc@ios_base@std@@QBE?AVlocale@2@XZ 1003d0d4     Client.obj
 0002:0000c0d4       __ehfuncinfo$??__Eg_Menu@@YAXXZ 1003d0d4     Client.obj
 0002:0000c0d4       __ehfuncinfo$??__Fg_Menu@@YAXXZ 1003d0d4     Client.obj
 0002:0000c0d4       __ehfuncinfo$?_Init@ios_base@std@@IAEXXZ 1003d0d4     Client.obj
 0002:0000c0f8       __unwindtable$??__Eg_Menu@@YAXXZ 1003d0f8     Client.obj
 0002:0000c0f8       __unwindtable$??0?$basic_filebuf@DU?$char_traits@D@std@@@std@@QAE@PAU_iobuf@@@Z 1003d0f8     main.obj
 0002:0000c0f8       __unwindtable$?_Init@ios_base@std@@IAEXXZ 1003d0f8     Client.obj
 0002:0000c0f8       __unwindtable$??__Fg_Menu@@YAXXZ 1003d0f8     Client.obj
 0002:0000c0f8       __unwindtable$?getloc@ios_base@std@@QBE?AVlocale@2@XZ 1003d0f8     Client.obj
 0002:0000c100       __ehfuncinfo$??1?$basic_ios@DU?$char_traits@D@std@@@std@@UAE@XZ 1003d100     Client.obj
 0002:0000c100       __ehfuncinfo$??_Gios_base@std@@UAEPAXI@Z 1003d100     Client.obj
 0002:0000c124       __unwindtable$??_Gios_base@std@@UAEPAXI@Z 1003d124     Client.obj
 0002:0000c124       __unwindtable$??1?$basic_ios@DU?$char_traits@D@std@@@std@@UAE@XZ 1003d124     Client.obj
 0002:0000c130       __ehfuncinfo$?SaveSettingsForWeapons@@YAXQAD@Z 1003d130     Client.obj
 0002:0000c158       __unwindtable$?SaveSettingsForWeapons@@YAXQAD@Z 1003d158     Client.obj
 0002:0000c1a8       __ehfuncinfo$?ReadSettingsForWeapons@@YAXQAD@Z 1003d1a8     Client.obj
 0002:0000c1d0       __unwindtable$?ReadSettingsForWeapons@@YAXQAD@Z 1003d1d0     Client.obj
 0002:0000c238       __ehfuncinfo$??1?$basic_filebuf@DU?$char_traits@D@std@@@std@@UAE@XZ 1003d238     main.obj
 0002:0000c238       __ehfuncinfo$??_G?$basic_ofstream@DU?$char_traits@D@std@@@std@@UAEPAXI@Z 1003d238     main.obj
 0002:0000c238       __ehfuncinfo$??_G?$basic_streambuf@DU?$char_traits@D@std@@@std@@UAEPAXI@Z 1003d238     Client.obj
 0002:0000c238       __ehfuncinfo$??_G?$basic_ostream@DU?$char_traits@D@std@@@std@@UAEPAXI@Z 1003d238     Client.obj
 0002:0000c25c       __unwindtable$??_G?$basic_ofstream@DU?$char_traits@D@std@@@std@@UAEPAXI@Z 1003d25c     main.obj
 0002:0000c25c       __unwindtable$??_G?$basic_ostream@DU?$char_traits@D@std@@@std@@UAEPAXI@Z 1003d25c     Client.obj
 0002:0000c25c       __unwindtable$??1?$basic_filebuf@DU?$char_traits@D@std@@@std@@UAE@XZ 1003d25c     main.obj
 0002:0000c25c       __unwindtable$??_G?$basic_streambuf@DU?$char_traits@D@std@@@std@@UAEPAXI@Z 1003d25c     Client.obj
 0002:0000c274       __ehfuncinfo$?_Copy@?$basic_string@DU?$char_traits@D@std@@V?$allocator@D@2@@std@@QAEXII@Z 1003d274     Client.obj
 0002:0000c298       __unwindtable$?_Copy@?$basic_string@DU?$char_traits@D@std@@V?$allocator@D@2@@std@@QAEXII@Z 1003d298     Client.obj
 0002:0000c2b8       __tryblocktable$?_Copy@?$basic_string@DU?$char_traits@D@std@@V?$allocator@D@2@@std@@QAEXII@Z 1003d2b8     Client.obj
 0002:0000c2e0       __catchsym$?_Copy@?$basic_string@DU?$char_traits@D@std@@V?$allocator@D@2@@std@@QAEXII@Z$96 1003d2e0     Client.obj
 0002:0000c2f0       __catchsym$?_Copy@?$basic_string@DU?$char_traits@D@std@@V?$allocator@D@2@@std@@QAEXII@Z$97 1003d2f0     Client.obj
 0002:0000c300       __ehfuncinfo$??$use_facet@V?$codecvt@DDU_Mbstatet@@@std@@@std@@YAABV?$codecvt@DDU_Mbstatet@@@0@ABVlocale@0@@Z 1003d300     main.obj
 0002:0000c300       __ehfuncinfo$??$use_facet@V?$ctype@D@std@@@std@@YAABV?$ctype@D@0@ABVlocale@0@@Z 1003d300     Client.obj
 0002:0000c324       __unwindtable$??$use_facet@V?$ctype@D@std@@@std@@YAABV?$ctype@D@0@ABVlocale@0@@Z 1003d324     Client.obj
 0002:0000c324       __unwindtable$??$use_facet@V?$codecvt@DDU_Mbstatet@@@std@@@std@@YAABV?$codecvt@DDU_Mbstatet@@@0@ABVlocale@0@@Z 1003d324     main.obj
 0002:0000c32c       __ehfuncinfo$??$?HDU?$char_traits@D@std@@V?$allocator@D@1@@std@@YA?AV?$basic_string@DU?$char_traits@D@std@@V?$allocator@D@2@@0@ABV10@PBD@Z 1003d32c     Client.obj
 0002:0000c350       __unwindtable$??$?HDU?$char_traits@D@std@@V?$allocator@D@1@@std@@YA?AV?$basic_string@DU?$char_traits@D@std@@V?$allocator@D@2@@0@ABV10@PBD@Z 1003d350     Client.obj
 0002:0000c358       __ehfuncinfo$?init@?$basic_ios@DU?$char_traits@D@std@@@std@@IAEXPAV?$basic_streambuf@DU?$char_traits@D@std@@@2@_N@Z 1003d358     Client.obj
 0002:0000c37c       __unwindtable$?init@?$basic_ios@DU?$char_traits@D@std@@@std@@IAEXPAV?$basic_streambuf@DU?$char_traits@D@std@@@2@_N@Z 1003d37c     Client.obj
 0002:0000c38c       __ehfuncinfo$??__Fofile@@YAXXZ 1003d38c     main.obj
 0002:0000c3b0       __unwindtable$??__Fofile@@YAXXZ 1003d3b0     main.obj
 0002:0000c3c8       __sehtable$?m_glReadPixels@@YGXHHHHIIPAX@Z 1003d3c8     main.obj
 0002:0000c3e0       __ehfuncinfo$??0?$basic_ofstream@DU?$char_traits@D@std@@@std@@QAE@XZ 1003d3e0     main.obj
 0002:0000c404       __unwindtable$??0?$basic_ofstream@DU?$char_traits@D@std@@@std@@QAE@XZ 1003d404     main.obj
 0002:0000c41c       __ehfuncinfo$?uflow@?$basic_filebuf@DU?$char_traits@D@std@@@std@@MAEHXZ 1003d41c     main.obj
 0002:0000c440       __unwindtable$?uflow@?$basic_filebuf@DU?$char_traits@D@std@@@std@@MAEHXZ 1003d440     main.obj
 0002:0000c448       __ehfuncinfo$?overflow@?$basic_filebuf@DU?$char_traits@D@std@@@std@@MAEHH@Z 1003d448     main.obj
 0002:0000c46c       __unwindtable$?overflow@?$basic_filebuf@DU?$char_traits@D@std@@@std@@MAEHH@Z 1003d46c     main.obj
 0002:0000c474       __ehfuncinfo$?_Getcat@?$codecvt@DDU_Mbstatet@@@std@@SAIPAPBVfacet@locale@2@PBV42@@Z 1003d474     main.obj
 0002:0000c498       __unwindtable$?_Getcat@?$codecvt@DDU_Mbstatet@@@std@@SAIPAPBVfacet@locale@2@PBV42@@Z 1003d498     main.obj
 0002:0000c4a0       __sehtable$??_M@YGXPAXIIP6EX0@Z@Z 1003d4a0     LIBCMT:ehvecdtr.obj
 0002:0000c4c0       __sehtable$?__ArrayUnwind@@YGXPAXIIP6EX0@Z@Z 1003d4c0     LIBCMT:ehvecdtr.obj
 0002:0000c4e0       __sehtable$___scrt_is_nonwritable_in_current_image 1003d4e0     LIBCMT:utility.obj
 0002:0000c500       __sehtable$??_L@YGXPAXIIP6EX0@Z1@Z 1003d500     LIBCMT:ehvecctr.obj
 0002:0000c520       __sehtable$?dllmain_crt_process_attach@@YAHQAUHINSTANCE__@@QAX@Z 1003d520     LIBCMT:dll_dllmain.obj
 0002:0000c540       __sehtable$?dllmain_crt_process_detach@@YAH_N@Z 1003d540     LIBCMT:dll_dllmain.obj
 0002:0000c560       __sehtable$?dllmain_dispatch@@YAHQAUHINSTANCE__@@KQAX@Z 1003d560     LIBCMT:dll_dllmain.obj
 0002:0000c5f0       __unwindtable$?_Locimp_dtor@_Locimp@locale@std@@CAXPAV123@@Z 1003d5f0     libcpmt:locale0.obj
 0002:0000c5f8       __ehfuncinfo$?_Locimp_dtor@_Locimp@locale@std@@CAXPAV123@@Z 1003d5f8     libcpmt:locale0.obj
 0002:0000c61c       __unwindtable$?_Init@locale@std@@CAPAV_Locimp@12@_N@Z 1003d61c     libcpmt:locale0.obj
 0002:0000c624       __ehfuncinfo$?_Init@locale@std@@CAPAV_Locimp@12@_N@Z 1003d624     libcpmt:locale0.obj
 0002:0000c6e0       __sehtable$___FrameUnwindToState 1003d6e0     libvcruntime:frame.obj
 0002:0000c708       __sehtable$?CallCatchBlock@@YAPAXPAUEHExceptionRecord@@PAUEHRegistrationNode@@PAU_CONTEXT@@PBU_s_FuncInfo@@PAXHK@Z 1003d708     libvcruntime:frame.obj
 0002:0000c730       __sehtable$___BuildCatchObject 1003d730     libvcruntime:frame.obj
 0002:0000c750       __sehtable$___DestructExceptionObject 1003d750     libvcruntime:frame.obj
 0002:0000c76c       __catchsym$?CallUnexpected@@YAXPBU_s_ESTypeList@@@Z$2 1003d76c     libvcruntime:frame.obj
 0002:0000c77c       __unwindtable$?CallUnexpected@@YAXPBU_s_ESTypeList@@@Z 1003d77c     libvcruntime:frame.obj
 0002:0000c78c       __tryblocktable$?CallUnexpected@@YAXPBU_s_ESTypeList@@@Z 1003d78c     libvcruntime:frame.obj
 0002:0000c7a0       __ehfuncinfo$?CallUnexpected@@YAXPBU_s_ESTypeList@@@Z 1003d7a0     libvcruntime:frame.obj
 0002:0000c7c8       __sehtable$___BuildCatchObjectHelper 1003d7c8     libvcruntime:frame.obj
 0002:0000c820       __sehtable$__ValidateEH3RN 1003d820     libvcruntime:_eh3valid_.obj
 0002:0000c840       __sehtable$_fputc          1003d840     libucrt:fputc.obj
 0002:0000c860       __sehtable$_fflush         1003d860     libucrt:fflush.obj
 0002:0000c880       __sehtable$_common_flush_all 1003d880     libucrt:fflush.obj
 0002:0000c8a8       __sehtable$_fclose         1003d8a8     libucrt:fclose.obj
 0002:0000c8c8       __sehtable$_fgetc          1003d8c8     libucrt:fgetc.obj
 0002:0000c8e8       __sehtable$??$?RV<lambda_11b4f7b0d3157825a5656a18eba1ae27>@@AAV<lambda_b51c0495177f500e782686251704ae76>@@V<lambda_cf89b47920b5017557bfe891e78aca36>@@@?$__crt_seh_guarded_call@I@@QAEI$$QAV<lambda_11b4f7b0d3157825a5656a18eba1ae27>@@AAV<lambda_b51c0495177f500e782686251704ae76>@@$$QAV<lambda_cf89b47920b5017557bfe891e78aca36>@@@Z 1003d8e8     libucrt:fwrite.obj
 0002:0000c908       __sehtable$??$?RV<lambda_d92cfe8357b99225085016881b624cb0>@@AAV<lambda_b721fa326cdb32351d23dfa67958c160>@@V<lambda_42d75b0848218ec137fa420c8ba9fdf9>@@@?$__crt_seh_guarded_call@H@@QAEH$$QAV<lambda_d92cfe8357b99225085016881b624cb0>@@AAV<lambda_b721fa326cdb32351d23dfa67958c160>@@$$QAV<lambda_42d75b0848218ec137fa420c8ba9fdf9>@@@Z 1003d908     libucrt:setvbuf.obj
 0002:0000c928       __sehtable$_ungetc         1003d928     libucrt:ungetc.obj
 0002:0000c948       __sehtable$?common_fseek@@YAHV__crt_stdio_stream@@_JH@Z 1003d948     libucrt:fseek.obj
 0002:0000c968       __sehtable$__query_new_handler 1003d968     libucrt:new_handler.obj
 0002:0000c988       __sehtable$_terminate      1003d988     libucrt:terminate.obj
 0002:0000c9a8       __sehtable$?common_exit@@YAXHW4_crt_exit_cleanup_mode@@W4_crt_exit_return_mode@@@Z 1003d9a8     libucrt:exit.obj
 0002:0000c9d0       __sehtable$??$?RV<lambda_800076c951b434888f4765a74a194fcc>@@AAV<lambda_4e60a939b0d047cfe11ddc22648dfba9>@@V<lambda_6dbb1268764f43b569ce7b67e331d33a>@@@?$__crt_seh_guarded_call@H@@QAEH$$QAV<lambda_800076c951b434888f4765a74a194fcc>@@AAV<lambda_4e60a939b0d047cfe11ddc22648dfba9>@@$$QAV<lambda_6dbb1268764f43b569ce7b67e331d33a>@@@Z 1003d9d0     libucrt:onexit.obj
 0002:0000c9f0       __sehtable$??$?RV<lambda_995298e7d72eb4c2aab26c0585b3abe5>@@AAV<lambda_275893d493268fdec8709772e3fcec0e>@@V<lambda_293819299cbf9a7022e18b56a874bb5c>@@@?$__crt_seh_guarded_call@H@@QAEH$$QAV<lambda_995298e7d72eb4c2aab26c0585b3abe5>@@AAV<lambda_275893d493268fdec8709772e3fcec0e>@@$$QAV<lambda_293819299cbf9a7022e18b56a874bb5c>@@@Z 1003d9f0     libucrt:onexit.obj
 0002:0000ca10       __sehtable$_setlocale      1003da10     libucrt:setlocale.obj
 0002:0000ca30       __sehtable$??$?RV<lambda_9df27f884b057bc3edfc946cb5b7cf47>@@AAV<lambda_e69574bed617af4e071282c136b37893>@@V<lambda_cc0d902bcbbeb830f749456577db4721>@@@?$__crt_seh_guarded_call@X@@QAEX$$QAV<lambda_9df27f884b057bc3edfc946cb5b7cf47>@@AAV<lambda_e69574bed617af4e071282c136b37893>@@$$QAV<lambda_cc0d902bcbbeb830f749456577db4721>@@@Z 1003da30     libucrt:per_thread_data.obj
 0002:0000ca50       __sehtable$??$?RV<lambda_3518db117f0e7cdb002338c5d3c47b6c>@@AAV<lambda_b2ea41f6bbb362cd97d94c6828d90b61>@@V<lambda_abdedf541bb04549bc734292b4a045d4>@@@?$__crt_seh_guarded_call@X@@QAEX$$QAV<lambda_3518db117f0e7cdb002338c5d3c47b6c>@@AAV<lambda_b2ea41f6bbb362cd97d94c6828d90b61>@@$$QAV<lambda_abdedf541bb04549bc734292b4a045d4>@@@Z 1003da50     libucrt:per_thread_data.obj
 0002:0000ca70       __sehtable$??$?RV<lambda_51b6e8b1eb166f2a3faf91f424b38130>@@AAV<lambda_6250bd4b2a391816dd638c3bf72b0bcb>@@V<lambda_0b5a4a3e68152e1d9b943535f5f47bed>@@@?$__crt_seh_guarded_call@X@@QAEX$$QAV<lambda_51b6e8b1eb166f2a3faf91f424b38130>@@AAV<lambda_6250bd4b2a391816dd638c3bf72b0bcb>@@$$QAV<lambda_0b5a4a3e68152e1d9b943535f5f47bed>@@@Z 1003da70     libucrt:per_thread_data.obj
 0002:0000ca90       __sehtable$??$?RV<lambda_5b71d36f03204c0beab531769a5b5694>@@AAV<lambda_be2b3da3f62db62e9dad5dc70221a656>@@V<lambda_8f9ce462984622f9bf76b59e2aaaf805>@@@?$__crt_seh_guarded_call@X@@QAEX$$QAV<lambda_5b71d36f03204c0beab531769a5b5694>@@AAV<lambda_be2b3da3f62db62e9dad5dc70221a656>@@$$QAV<lambda_8f9ce462984622f9bf76b59e2aaaf805>@@@Z 1003da90     libucrt:per_thread_data.obj
 0002:0000cab0       __sehtable$___acrt_uninitialize_locale 1003dab0     libucrt:wsetlocale.obj
 0002:0000cad0       __sehtable$??$?RV<lambda_70818de7b02deff9841e8b0962a60ed9>@@AAV<lambda_2af78c5f5901b1372d98f9ab3177dfa6>@@AAV<lambda_f51fe5fd7c79a33db34fc9310f277369>@@@?$__crt_seh_guarded_call@X@@QAEX$$QAV<lambda_70818de7b02deff9841e8b0962a60ed9>@@AAV<lambda_2af78c5f5901b1372d98f9ab3177dfa6>@@AAV<lambda_f51fe5fd7c79a33db34fc9310f277369>@@@Z 1003dad0     libucrt:wsetlocale.obj
 0002:0000caf0       __sehtable$??$?RV<lambda_c76fdea48760d5f9368b465f31df4405>@@AAV<lambda_e378711a6f6581bf7f0efd7cdf97f5d9>@@V<lambda_e927a58b2a85c081d733e8c6192ae2d2>@@@?$__crt_seh_guarded_call@X@@QAEX$$QAV<lambda_c76fdea48760d5f9368b465f31df4405>@@AAV<lambda_e378711a6f6581bf7f0efd7cdf97f5d9>@@$$QAV<lambda_e927a58b2a85c081d733e8c6192ae2d2>@@@Z 1003daf0     libucrt:wsetlocale.obj
 0002:0000cb10       __sehtable$___acrt_initialize_lowio 1003db10     libucrt:ioinit.obj
 0002:0000cb30       __sehtable$??$?RV<lambda_61cee617f5178ae960314fd4d05640a0>@@AAV<lambda_6978c1fb23f02e42e1d9e99668cc68aa>@@V<lambda_9cd88cf8ad10232537feb2133f08c833>@@@?$__crt_seh_guarded_call@H@@QAEH$$QAV<lambda_61cee617f5178ae960314fd4d05640a0>@@AAV<lambda_6978c1fb23f02e42e1d9e99668cc68aa>@@$$QAV<lambda_9cd88cf8ad10232537feb2133f08c833>@@@Z 1003db30     libucrt:commit.obj
 0002:0000cb50       __sehtable$__write         1003db50     libucrt:write.obj
 0002:0000cb70       __sehtable$??$?RV<lambda_123407a5e2ac06da108355a851863b7a>@@AAV<lambda_2fe9b910cf3cbf4a0ab98a02ba45b3ec>@@V<lambda_ae55bdf541ad94d75914d381c370e64d>@@@?$__crt_seh_guarded_call@H@@QAEH$$QAV<lambda_123407a5e2ac06da108355a851863b7a>@@AAV<lambda_2fe9b910cf3cbf4a0ab98a02ba45b3ec>@@$$QAV<lambda_ae55bdf541ad94d75914d381c370e64d>@@@Z 1003db70     libucrt:close.obj
 0002:0000cb90       __sehtable$??$?RV<lambda_9227be29367c048ad7fd93a717dcb1a1>@@AAV<lambda_a463b7b0560cfcaf9b17f27c6ef46564>@@V<lambda_ccea11b5727ccf69be64f5f5d9a08d9f>@@@?$__crt_seh_guarded_call@H@@QAEH$$QAV<lambda_9227be29367c048ad7fd93a717dcb1a1>@@AAV<lambda_a463b7b0560cfcaf9b17f27c6ef46564>@@$$QAV<lambda_ccea11b5727ccf69be64f5f5d9a08d9f>@@@Z 1003db90     libucrt:winapi_thunks.obj
 0002:0000cbb0       __sehtable$__fcloseall     1003dbb0     libucrt:closeall.obj
 0002:0000cbd0       __sehtable$??$common_ftell@_J@@YA_JV__crt_stdio_stream@@@Z 1003dbd0     libucrt:ftell.obj
 0002:0000cbf0       __sehtable$??$common_lseek@_J@@YA_JH_JH@Z 1003dbf0     libucrt:lseek.obj
 0002:0000cc10       __sehtable$___acrt_update_thread_multibyte_data 1003dc10     libucrt:mbctype.obj
 0002:0000cc30       __sehtable$??$?RV<lambda_978dc153c237d78434369da87b74ff60>@@AAV<lambda_ad1ced32f4ac17aa236e5ef05d6b3b7c>@@V<lambda_4a8533e2866a575feecb8298ce776b0d>@@@?$__crt_seh_guarded_call@X@@QAEX$$QAV<lambda_978dc153c237d78434369da87b74ff60>@@AAV<lambda_ad1ced32f4ac17aa236e5ef05d6b3b7c>@@$$QAV<lambda_4a8533e2866a575feecb8298ce776b0d>@@@Z 1003dc30     libucrt:mbctype.obj
 0002:0000cc50       __sehtable$_raise          1003dc50     libucrt:signal.obj
 0002:0000cc70       __sehtable$??$?RV<lambda_a048d3beccc847880fc8490e18b82769>@@AAV<lambda_ec61778202f4f5fc7e7711acc23c3bca>@@V<lambda_f7496a158712204296dd6628a163878e>@@@?$__crt_seh_guarded_call@P6AXH@Z@@QAEP6AXH@Z$$QAV<lambda_a048d3beccc847880fc8490e18b82769>@@AAV<lambda_ec61778202f4f5fc7e7711acc23c3bca>@@$$QAV<lambda_f7496a158712204296dd6628a163878e>@@@Z 1003dc70     libucrt:signal.obj
 0002:0000cc90       __sehtable$___acrt_update_thread_locale_data 1003dc90     libucrt:locale_refcounting.obj
 0002:0000ccb0       __sehtable$___acrt_lowio_ensure_fh_exists 1003dcb0     libucrt:osfinfo.obj
 0002:0000ccd0       __sehtable$__read          1003dcd0     libucrt:read.obj
 0002:0000ccf0       __sehtable$__IsNonwritableInCurrentImage 1003dcf0     LIBCMT:pesect.obj
 0002:0000ce20       .edata                     1003de20     HackBaseMini.exp
 0002:0000ce48       rgpv                       1003de48     HackBaseMini.exp
 0002:0000ce4c       rgszName                   1003de4c     HackBaseMini.exp
 0002:0000ce50       rgwOrd                     1003de50     HackBaseMini.exp
 0002:0000ce52       szName                     1003de52     HackBaseMini.exp
 0002:0000ce63       $N00001                    1003de63     HackBaseMini.exp
 0002:0000d184       .idata$6                   1003e184     kernel32:KERNEL32.dll
 0002:0000d1b4       .idata$6                   1003e1b4     user32:USER32.dll
 0002:0000d1d0       .idata$6                   1003e1d0     OpenGL32:OPENGL32.dll
 0002:0000d708       .idata$6                   1003e708     advapi32:ADVAPI32.dll
 0003:00000014       ?init@std@@3JA             1003f014     libcpmt:xlock.obj
 0003:00000088       ?atcount_cdecl@@3IA        1003f088     libcpmt:iosptrs.obj
 0003:000001c8       $SG62434                   1003f1c8     detours:detours.obj
 0003:000001d8       $SG62437                   1003f1d8     detours:detours.obj
 0003:000001f0       $SG62439                   1003f1f0     detours:detours.obj
 0003:00000200       $SG62441                   1003f200     detours:detours.obj
 0003:00000210       $SG62443                   1003f210     detours:detours.obj
 0003:00000220       $SG62445                   1003f220     detours:detours.obj
 0003:00000230       $SG62447                   1003f230     detours:detours.obj
 0003:00000244       $SG62449                   1003f244     detours:detours.obj
 0003:00000258       $SG62451                   1003f258     detours:detours.obj
 0003:00000264       $SG62487                   1003f264     detours:detours.obj
 0003:00000268       $SG62605                   1003f268     detours:detours.obj
 0003:00000270       ?_Tlg_Microsoft_CRTProviderProv@@3U_TlgProvider_t@__vcrt_trace_logging_provider@@A 1003f270     libvcruntime:telemetry.obj
 0003:000002c0       ?__vcrt_flsindex@@3KA      1003f2c0     libvcruntime:per_thread_data.obj
 0003:000003d8       _errno_no_memory           1003f3d8     libucrt:errno.obj
 0003:000003dc       _doserrno_no_memory        1003f3dc     libucrt:errno.obj
 0003:00000400       ___acrt_flsindex           1003f400     libucrt:per_thread_data.obj
 0003:00000404       __ctype_loc_style          1003f404     libucrt:wsetlocale.obj
 0003:00000508       ___rgctypeflag             1003f508     libucrt:mbctype.obj
 0003:00000510       ___rgcode_page_info        1003f510     libucrt:mbctype.obj
 0003:00000a30       _tzstd_program             1003fa30     libucrt:timeset.obj
 0003:00000a70       _tzdst_program             1003fa70     libucrt:timeset.obj
 0003:00000ab0       _tzname_states             1003fab0     libucrt:timeset.obj
 0003:00000be0       ?m_bAimPanic@?1??CL_CreateMove@@YAXMPAUusercmd_s@@H@Z@4_NA 1003fbe0     Client.obj
 0003:00000be8       ?Timer2@@3HA               1003fbe8     Client.obj
 0003:00000bec       ?Timer@@3HA                1003fbec     Client.obj
 0003:00000c0c       ?FirstFrame@?1??HUD_Frame@@YAXN@Z@4_NA 1003fc0c     Client.obj
 0003:00001098       ?_Tss_mutex@@3U_RTL_CRITICAL_SECTION@@A 10040098     LIBCMT:thread_safe_statics.obj
 0003:000010b0       ?_Tss_cv@@3U_RTL_CONDITION_VARIABLE@@A 100400b0     LIBCMT:thread_safe_statics.obj
 0003:000010b4       ?_Tss_event@@3PAXA         100400b4     LIBCMT:thread_safe_statics.obj
 0003:000010b8       ?encoded_sleep_condition_variable_cs@@3P6GHPAU_RTL_CONDITION_VARIABLE@@PAU_RTL_CRITICAL_SECTION@@K@ZA 100400b8     LIBCMT:thread_safe_statics.obj
 0003:000010bc       ?encoded_wake_all_condition_variable@@3P6GXPAU_RTL_CONDITION_VARIABLE@@@ZA 100400bc     LIBCMT:thread_safe_statics.obj
 0003:000010c8       ?module_local_atexit_table@@3U_onexit_table_t@@A 100400c8     LIBCMT:utility.obj
 0003:000010d4       ?module_local_at_quick_exit_table@@3U_onexit_table_t@@A 100400d4     LIBCMT:utility.obj
 0003:000010e0       ?is_initialized_as_dll@@3_NA 100400e0     LIBCMT:utility.obj
 0003:000010e4       ?__proc_attached@@3HA      100400e4     LIBCMT:dll_dllmain.obj
 0003:00001108       _GS_ExceptionRecord        10040108     LIBCMT:gs_report.obj
 0003:00001158       _GS_ContextRecord          10040158     LIBCMT:gs_report.obj
 0003:00001428       ?initlocks@std@@3V_Init_locks@1@A 10040428     libcpmt:xlock.obj
 0003:00001430       ?mtx@std@@3PAU_RTL_CRITICAL_SECTION@@A 10040430     libcpmt:xlock.obj
 0003:000014f8       _global_locale             100404f8     libcpmt:locale0.obj
 0003:000014fc       ?_Fac_head@std@@3PAU_Fac_node@1@A 100404fc     libcpmt:locale0.obj
 0003:00001514       ?classic_locale@std@@3Vlocale@1@A 10040514     libcpmt:locale0.obj
 0003:0000151c       ?_Fac_tidy_reg@std@@3U_Fac_tidy_reg_t@1@B 1004051c     libcpmt:locale0.obj
 0003:0000151d       ?registered@?1??_Setgloballocale@locale@std@@CAXPAX@Z@4_NA 1004051d     libcpmt:locale0.obj
 0003:00001520       ?stdstr@std@@3PAPAVios_base@1@A 10040520     libcpmt:ios.obj
 0003:00001548       ?stdopens@std@@3PADA       10040548     libcpmt:ios.obj
 0003:00001578       ?atfuns_cdecl@@3PAP6AXXZA  10040578     libcpmt:iosptrs.obj
 0003:000015a4       ?initlocks@std@@3V_Init_locks@1@A 100405a4     libcpmt:iosptrs.obj
 0003:000015a5       ?init_atexit@@3U_Init_atexit@@A 100405a5     libcpmt:iosptrs.obj
 0003:000016dc       ?module_handles@@3PAPAUHINSTANCE__@@A 100406dc     libvcruntime:winapi_downlevel.obj
 0003:000016ec       ?encoded_function_pointers@@3PAPAXA 100406ec     libvcruntime:winapi_downlevel.obj
 0003:00001714       ?__vcrt_startup_thread_ptd@@3U__vcrt_ptd@@A 10040714     libvcruntime:per_thread_data.obj
 0003:0000173c       ___vcrt_lock_table         1004073c     libvcruntime:locks.obj
 0003:00001754       ___vcrt_locks_initialized  10040754     libvcruntime:locks.obj
 0003:00001780       ?heap@@3V_HeapManager@@A   10040780     libvcruntime:undname.obj
 0003:00001798       _rgValidPages              10040798     libvcruntime:_eh3valid_.obj
 0003:00001818       _nValidPages               10040818     libvcruntime:_eh3valid_.obj
 0003:0000181c       _lModifying                1004081c     libvcruntime:_eh3valid_.obj
 0003:00001828       ___acrt_invalid_parameter_handler 10040828     libucrt:invalid_parameter.obj
 0003:00001838       ___acrt_new_handler        10040838     libucrt:new_handler.obj
 0003:0000183c       _c_termination_complete    1004083c     libucrt:exit.obj
 0003:00001840       _thread_local_exit_callback_func 10040840     libucrt:exit.obj
 0003:00001844       ?c_exit_complete@?5??common_exit@@YAXHW4_crt_exit_cleanup_mode@@W4_crt_exit_return_mode@@@Z@4_NA 10040844     libucrt:exit.obj
 0003:00001870       ___acrt_lock_table         10040870     libucrt:locks.obj
 0003:000019a8       ___acrt_locks_initialized  100409a8     libucrt:locks.obj
 0003:000019ac       _enable_percent_n          100409ac     libucrt:printf_count_output.obj
 0003:00001bc8       _module_handles            10040bc8     libucrt:winapi_thunks.obj
 0003:00001c18       _encoded_function_pointers 10040c18     libucrt:winapi_thunks.obj
 0003:00001c98       ?static_enum_proc@?1??enum_system_locales_ex_nolock@@YAHQ6GHPA_WKJ@Z@Z@4P6GH0KJ@ZA 10040c98     libucrt:winapi_thunks.obj
 0003:00001c9c       ?state_cache@?1??__acrt_is_packaged_app@@9@4JA 10040c9c     libucrt:winapi_thunks.obj
 0003:00001cb8       _fSystemSet                10040cb8     libucrt:mbctype.obj
 0003:00001cbc       ?initialized@?1??__acrt_initialize_multibyte@@9@4_NA 10040cbc     libucrt:mbctype.obj
 0003:00001cd4       _ctrlc_action              10040cd4     libucrt:signal.obj
 0003:00001cd8       _ctrlbreak_action          10040cd8     libucrt:signal.obj
 0003:00001cdc       _abort_action              10040cdc     libucrt:signal.obj
 0003:00001ce0       _term_action               10040ce0     libucrt:signal.obj
 0003:00001ce4       _user_matherr              10040ce4     libucrt:matherr.obj
 0003:00001ce8       ___acrt_global_new_mode    10040ce8     libucrt:new_mode.obj
 0003:00001cfc       __tzname                   10040cfc     libucrt:timeset.obj
 0003:00001d00       _tz_api_used               10040d00     libucrt:tzset.obj
 0003:00001d08       _tz_info                   10040d08     libucrt:tzset.obj
 0003:00001db4       ___acrt_app_type           10040db4     libucrt:report_runtime_error.obj
 0003:00001db8       __pmatherr_set             10040db8     libucrt:libm_error.obj
 0003:00002ce4       ?glSeed@@3IA               10041ce4     nospread.obj
 0003:0000c02c       ?AntiScreenshot@@3_NA      1004b02c     Client.obj
 0003:0000c02d       ?AntiScreenshot2@@3_NA     1004b02d     Client.obj
 0003:0000c030       ?gpBuf@@3PAEA              1004b030     parsemsg.obj
 0003:0000c034       ?giSize@@3HA               1004b034     parsemsg.obj
 0003:0000c038       ?giRead@@3HA               1004b038     parsemsg.obj
 0003:0000c04c       ?iCounter@?1??BulletConrtol_CreateMove@@YAXPAUusercmd_s@@@Z@4HA 1004b04c     Client.obj
 0003:0000c05c       ?iLastWeaponID@?1??CurWeapon@@YAHPBDHPAX@Z@4HA 1004b05c     UserMsgs.obj
 0003:0000c060       ?OldWeaponBits@?1??WeaponListUpdate@@YAXH@Z@4HA 1004b060     weaponslist.obj
 0003:0000c070       ?curammo@?1??HUD_PostRunCmd@cNoSpread@@QAEXPAUlocal_state_s@@0PAUusercmd_s@@HNI@Z@4HA 1004b070     nospread.obj
 0003:0000c078       ?string@?1??READ_STRING@@YAPADXZ@4PADA 1004b078     parsemsg.obj
